
cam_ir.elf:     file format elf32-littlearm

Sections:
Idx Name          Size      VMA       LMA       File off  Algn
  0 .isr_vector   00000188  08000000  08000000  00010000  2**0
                  CONTENTS, ALLOC, LOAD, READONLY, DATA
  1 .text         00001ebc  08000188  08000188  00010188  2**2
                  CONTENTS, ALLOC, LOAD, READONLY, CODE
  2 .rodata       00000058  08002044  08002044  00012044  2**2
                  CONTENTS, ALLOC, LOAD, READONLY, DATA
  3 .ARM.extab    00000000  0800209c  0800209c  0002000c  2**0
                  CONTENTS
  4 .ARM          00000008  0800209c  0800209c  0001209c  2**2
                  CONTENTS, ALLOC, LOAD, READONLY, DATA
  5 .preinit_array 00000000  080020a4  080020a4  0002000c  2**0
                  CONTENTS, ALLOC, LOAD, DATA
  6 .init_array   00000004  080020a4  080020a4  000120a4  2**2
                  CONTENTS, ALLOC, LOAD, DATA
  7 .fini_array   00000004  080020a8  080020a8  000120a8  2**2
                  CONTENTS, ALLOC, LOAD, DATA
  8 .data         0000000c  20000000  080020ac  00020000  2**2
                  CONTENTS, ALLOC, LOAD, DATA
  9 .ccmram       00000000  10000000  10000000  0002000c  2**0
                  CONTENTS
 10 .bss          0000034c  2000000c  2000000c  0002000c  2**2
                  ALLOC
 11 ._user_heap_stack 00000600  20000358  20000358  0002000c  2**0
                  ALLOC
 12 .ARM.attributes 00000030  00000000  00000000  0002000c  2**0
                  CONTENTS, READONLY
 13 .debug_info   0000a18f  00000000  00000000  0002003c  2**0
                  CONTENTS, READONLY, DEBUGGING, OCTETS
 14 .debug_abbrev 00001589  00000000  00000000  0002a1cb  2**0
                  CONTENTS, READONLY, DEBUGGING, OCTETS
 15 .debug_aranges 000007f8  00000000  00000000  0002b758  2**3
                  CONTENTS, READONLY, DEBUGGING, OCTETS
 16 .debug_ranges 00000780  00000000  00000000  0002bf50  2**3
                  CONTENTS, READONLY, DEBUGGING, OCTETS
 17 .debug_macro  0002023e  00000000  00000000  0002c6d0  2**0
                  CONTENTS, READONLY, DEBUGGING, OCTETS
 18 .debug_line   00009517  00000000  00000000  0004c90e  2**0
                  CONTENTS, READONLY, DEBUGGING, OCTETS
 19 .debug_str    000c41c5  00000000  00000000  00055e25  2**0
                  CONTENTS, READONLY, DEBUGGING, OCTETS
 20 .comment      00000053  00000000  00000000  00119fea  2**0
                  CONTENTS, READONLY
 21 .debug_frame  00002054  00000000  00000000  0011a040  2**2
                  CONTENTS, READONLY, DEBUGGING, OCTETS

Disassembly of section .text:

08000188 <__do_global_dtors_aux>:
 8000188:	b510      	push	{r4, lr}
 800018a:	4c05      	ldr	r4, [pc, #20]	; (80001a0 <__do_global_dtors_aux+0x18>)
 800018c:	7823      	ldrb	r3, [r4, #0]
 800018e:	b933      	cbnz	r3, 800019e <__do_global_dtors_aux+0x16>
 8000190:	4b04      	ldr	r3, [pc, #16]	; (80001a4 <__do_global_dtors_aux+0x1c>)
 8000192:	b113      	cbz	r3, 800019a <__do_global_dtors_aux+0x12>
 8000194:	4804      	ldr	r0, [pc, #16]	; (80001a8 <__do_global_dtors_aux+0x20>)
 8000196:	f3af 8000 	nop.w
 800019a:	2301      	movs	r3, #1
 800019c:	7023      	strb	r3, [r4, #0]
 800019e:	bd10      	pop	{r4, pc}
 80001a0:	2000000c 	.word	0x2000000c
 80001a4:	00000000 	.word	0x00000000
 80001a8:	0800202c 	.word	0x0800202c

080001ac <frame_dummy>:
 80001ac:	b508      	push	{r3, lr}
 80001ae:	4b03      	ldr	r3, [pc, #12]	; (80001bc <frame_dummy+0x10>)
 80001b0:	b11b      	cbz	r3, 80001ba <frame_dummy+0xe>
 80001b2:	4903      	ldr	r1, [pc, #12]	; (80001c0 <frame_dummy+0x14>)
 80001b4:	4803      	ldr	r0, [pc, #12]	; (80001c4 <frame_dummy+0x18>)
 80001b6:	f3af 8000 	nop.w
 80001ba:	bd08      	pop	{r3, pc}
 80001bc:	00000000 	.word	0x00000000
 80001c0:	20000010 	.word	0x20000010
 80001c4:	0800202c 	.word	0x0800202c

080001c8 <__aeabi_uldivmod>:
 80001c8:	b953      	cbnz	r3, 80001e0 <__aeabi_uldivmod+0x18>
 80001ca:	b94a      	cbnz	r2, 80001e0 <__aeabi_uldivmod+0x18>
 80001cc:	2900      	cmp	r1, #0
 80001ce:	bf08      	it	eq
 80001d0:	2800      	cmpeq	r0, #0
 80001d2:	bf1c      	itt	ne
 80001d4:	f04f 31ff 	movne.w	r1, #4294967295
 80001d8:	f04f 30ff 	movne.w	r0, #4294967295
 80001dc:	f000 b96e 	b.w	80004bc <__aeabi_idiv0>
 80001e0:	f1ad 0c08 	sub.w	ip, sp, #8
 80001e4:	e96d ce04 	strd	ip, lr, [sp, #-16]!
 80001e8:	f000 f806 	bl	80001f8 <__udivmoddi4>
 80001ec:	f8dd e004 	ldr.w	lr, [sp, #4]
 80001f0:	e9dd 2302 	ldrd	r2, r3, [sp, #8]
 80001f4:	b004      	add	sp, #16
 80001f6:	4770      	bx	lr

080001f8 <__udivmoddi4>:
 80001f8:	e92d 47f0 	stmdb	sp!, {r4, r5, r6, r7, r8, r9, sl, lr}
 80001fc:	9d08      	ldr	r5, [sp, #32]
 80001fe:	4604      	mov	r4, r0
 8000200:	468c      	mov	ip, r1
 8000202:	2b00      	cmp	r3, #0
 8000204:	f040 8083 	bne.w	800030e <__udivmoddi4+0x116>
 8000208:	428a      	cmp	r2, r1
 800020a:	4617      	mov	r7, r2
 800020c:	d947      	bls.n	800029e <__udivmoddi4+0xa6>
 800020e:	fab2 f282 	clz	r2, r2
 8000212:	b142      	cbz	r2, 8000226 <__udivmoddi4+0x2e>
 8000214:	f1c2 0020 	rsb	r0, r2, #32
 8000218:	fa24 f000 	lsr.w	r0, r4, r0
 800021c:	4091      	lsls	r1, r2
 800021e:	4097      	lsls	r7, r2
 8000220:	ea40 0c01 	orr.w	ip, r0, r1
 8000224:	4094      	lsls	r4, r2
 8000226:	ea4f 4817 	mov.w	r8, r7, lsr #16
 800022a:	0c23      	lsrs	r3, r4, #16
 800022c:	fbbc f6f8 	udiv	r6, ip, r8
 8000230:	fa1f fe87 	uxth.w	lr, r7
 8000234:	fb08 c116 	mls	r1, r8, r6, ip
 8000238:	ea43 4301 	orr.w	r3, r3, r1, lsl #16
 800023c:	fb06 f10e 	mul.w	r1, r6, lr
 8000240:	4299      	cmp	r1, r3
 8000242:	d909      	bls.n	8000258 <__udivmoddi4+0x60>
 8000244:	18fb      	adds	r3, r7, r3
 8000246:	f106 30ff 	add.w	r0, r6, #4294967295
 800024a:	f080 8119 	bcs.w	8000480 <__udivmoddi4+0x288>
 800024e:	4299      	cmp	r1, r3
 8000250:	f240 8116 	bls.w	8000480 <__udivmoddi4+0x288>
 8000254:	3e02      	subs	r6, #2
 8000256:	443b      	add	r3, r7
 8000258:	1a5b      	subs	r3, r3, r1
 800025a:	b2a4      	uxth	r4, r4
 800025c:	fbb3 f0f8 	udiv	r0, r3, r8
 8000260:	fb08 3310 	mls	r3, r8, r0, r3
 8000264:	ea44 4403 	orr.w	r4, r4, r3, lsl #16
 8000268:	fb00 fe0e 	mul.w	lr, r0, lr
 800026c:	45a6      	cmp	lr, r4
 800026e:	d909      	bls.n	8000284 <__udivmoddi4+0x8c>
 8000270:	193c      	adds	r4, r7, r4
 8000272:	f100 33ff 	add.w	r3, r0, #4294967295
 8000276:	f080 8105 	bcs.w	8000484 <__udivmoddi4+0x28c>
 800027a:	45a6      	cmp	lr, r4
 800027c:	f240 8102 	bls.w	8000484 <__udivmoddi4+0x28c>
 8000280:	3802      	subs	r0, #2
 8000282:	443c      	add	r4, r7
 8000284:	ea40 4006 	orr.w	r0, r0, r6, lsl #16
 8000288:	eba4 040e 	sub.w	r4, r4, lr
 800028c:	2600      	movs	r6, #0
 800028e:	b11d      	cbz	r5, 8000298 <__udivmoddi4+0xa0>
 8000290:	40d4      	lsrs	r4, r2
 8000292:	2300      	movs	r3, #0
 8000294:	e9c5 4300 	strd	r4, r3, [r5]
 8000298:	4631      	mov	r1, r6
 800029a:	e8bd 87f0 	ldmia.w	sp!, {r4, r5, r6, r7, r8, r9, sl, pc}
 800029e:	b902      	cbnz	r2, 80002a2 <__udivmoddi4+0xaa>
 80002a0:	deff      	udf	#255	; 0xff
 80002a2:	fab2 f282 	clz	r2, r2
 80002a6:	2a00      	cmp	r2, #0
 80002a8:	d150      	bne.n	800034c <__udivmoddi4+0x154>
 80002aa:	1bcb      	subs	r3, r1, r7
 80002ac:	ea4f 4e17 	mov.w	lr, r7, lsr #16
 80002b0:	fa1f f887 	uxth.w	r8, r7
 80002b4:	2601      	movs	r6, #1
 80002b6:	fbb3 fcfe 	udiv	ip, r3, lr
 80002ba:	0c21      	lsrs	r1, r4, #16
 80002bc:	fb0e 331c 	mls	r3, lr, ip, r3
 80002c0:	ea41 4103 	orr.w	r1, r1, r3, lsl #16
 80002c4:	fb08 f30c 	mul.w	r3, r8, ip
 80002c8:	428b      	cmp	r3, r1
 80002ca:	d907      	bls.n	80002dc <__udivmoddi4+0xe4>
 80002cc:	1879      	adds	r1, r7, r1
 80002ce:	f10c 30ff 	add.w	r0, ip, #4294967295
 80002d2:	d202      	bcs.n	80002da <__udivmoddi4+0xe2>
 80002d4:	428b      	cmp	r3, r1
 80002d6:	f200 80e9 	bhi.w	80004ac <__udivmoddi4+0x2b4>
 80002da:	4684      	mov	ip, r0
 80002dc:	1ac9      	subs	r1, r1, r3
 80002de:	b2a3      	uxth	r3, r4
 80002e0:	fbb1 f0fe 	udiv	r0, r1, lr
 80002e4:	fb0e 1110 	mls	r1, lr, r0, r1
 80002e8:	ea43 4401 	orr.w	r4, r3, r1, lsl #16
 80002ec:	fb08 f800 	mul.w	r8, r8, r0
 80002f0:	45a0      	cmp	r8, r4
 80002f2:	d907      	bls.n	8000304 <__udivmoddi4+0x10c>
 80002f4:	193c      	adds	r4, r7, r4
 80002f6:	f100 33ff 	add.w	r3, r0, #4294967295
 80002fa:	d202      	bcs.n	8000302 <__udivmoddi4+0x10a>
 80002fc:	45a0      	cmp	r8, r4
 80002fe:	f200 80d9 	bhi.w	80004b4 <__udivmoddi4+0x2bc>
 8000302:	4618      	mov	r0, r3
 8000304:	eba4 0408 	sub.w	r4, r4, r8
 8000308:	ea40 400c 	orr.w	r0, r0, ip, lsl #16
 800030c:	e7bf      	b.n	800028e <__udivmoddi4+0x96>
 800030e:	428b      	cmp	r3, r1
 8000310:	d909      	bls.n	8000326 <__udivmoddi4+0x12e>
 8000312:	2d00      	cmp	r5, #0
 8000314:	f000 80b1 	beq.w	800047a <__udivmoddi4+0x282>
 8000318:	2600      	movs	r6, #0
 800031a:	e9c5 0100 	strd	r0, r1, [r5]
 800031e:	4630      	mov	r0, r6
 8000320:	4631      	mov	r1, r6
 8000322:	e8bd 87f0 	ldmia.w	sp!, {r4, r5, r6, r7, r8, r9, sl, pc}
 8000326:	fab3 f683 	clz	r6, r3
 800032a:	2e00      	cmp	r6, #0
 800032c:	d14a      	bne.n	80003c4 <__udivmoddi4+0x1cc>
 800032e:	428b      	cmp	r3, r1
 8000330:	d302      	bcc.n	8000338 <__udivmoddi4+0x140>
 8000332:	4282      	cmp	r2, r0
 8000334:	f200 80b8 	bhi.w	80004a8 <__udivmoddi4+0x2b0>
 8000338:	1a84      	subs	r4, r0, r2
 800033a:	eb61 0103 	sbc.w	r1, r1, r3
 800033e:	2001      	movs	r0, #1
 8000340:	468c      	mov	ip, r1
 8000342:	2d00      	cmp	r5, #0
 8000344:	d0a8      	beq.n	8000298 <__udivmoddi4+0xa0>
 8000346:	e9c5 4c00 	strd	r4, ip, [r5]
 800034a:	e7a5      	b.n	8000298 <__udivmoddi4+0xa0>
 800034c:	f1c2 0320 	rsb	r3, r2, #32
 8000350:	fa20 f603 	lsr.w	r6, r0, r3
 8000354:	4097      	lsls	r7, r2
 8000356:	fa01 f002 	lsl.w	r0, r1, r2
 800035a:	ea4f 4e17 	mov.w	lr, r7, lsr #16
 800035e:	40d9      	lsrs	r1, r3
 8000360:	4330      	orrs	r0, r6
 8000362:	0c03      	lsrs	r3, r0, #16
 8000364:	fbb1 f6fe 	udiv	r6, r1, lr
 8000368:	fa1f f887 	uxth.w	r8, r7
 800036c:	fb0e 1116 	mls	r1, lr, r6, r1
 8000370:	ea43 4301 	orr.w	r3, r3, r1, lsl #16
 8000374:	fb06 f108 	mul.w	r1, r6, r8
 8000378:	4299      	cmp	r1, r3
 800037a:	fa04 f402 	lsl.w	r4, r4, r2
 800037e:	d909      	bls.n	8000394 <__udivmoddi4+0x19c>
 8000380:	18fb      	adds	r3, r7, r3
 8000382:	f106 3cff 	add.w	ip, r6, #4294967295
 8000386:	f080 808d 	bcs.w	80004a4 <__udivmoddi4+0x2ac>
 800038a:	4299      	cmp	r1, r3
 800038c:	f240 808a 	bls.w	80004a4 <__udivmoddi4+0x2ac>
 8000390:	3e02      	subs	r6, #2
 8000392:	443b      	add	r3, r7
 8000394:	1a5b      	subs	r3, r3, r1
 8000396:	b281      	uxth	r1, r0
 8000398:	fbb3 f0fe 	udiv	r0, r3, lr
 800039c:	fb0e 3310 	mls	r3, lr, r0, r3
 80003a0:	ea41 4103 	orr.w	r1, r1, r3, lsl #16
 80003a4:	fb00 f308 	mul.w	r3, r0, r8
 80003a8:	428b      	cmp	r3, r1
 80003aa:	d907      	bls.n	80003bc <__udivmoddi4+0x1c4>
 80003ac:	1879      	adds	r1, r7, r1
 80003ae:	f100 3cff 	add.w	ip, r0, #4294967295
 80003b2:	d273      	bcs.n	800049c <__udivmoddi4+0x2a4>
 80003b4:	428b      	cmp	r3, r1
 80003b6:	d971      	bls.n	800049c <__udivmoddi4+0x2a4>
 80003b8:	3802      	subs	r0, #2
 80003ba:	4439      	add	r1, r7
 80003bc:	1acb      	subs	r3, r1, r3
 80003be:	ea40 4606 	orr.w	r6, r0, r6, lsl #16
 80003c2:	e778      	b.n	80002b6 <__udivmoddi4+0xbe>
 80003c4:	f1c6 0c20 	rsb	ip, r6, #32
 80003c8:	fa03 f406 	lsl.w	r4, r3, r6
 80003cc:	fa22 f30c 	lsr.w	r3, r2, ip
 80003d0:	431c      	orrs	r4, r3
 80003d2:	fa20 f70c 	lsr.w	r7, r0, ip
 80003d6:	fa01 f306 	lsl.w	r3, r1, r6
 80003da:	ea4f 4e14 	mov.w	lr, r4, lsr #16
 80003de:	fa21 f10c 	lsr.w	r1, r1, ip
 80003e2:	431f      	orrs	r7, r3
 80003e4:	0c3b      	lsrs	r3, r7, #16
 80003e6:	fbb1 f9fe 	udiv	r9, r1, lr
 80003ea:	fa1f f884 	uxth.w	r8, r4
 80003ee:	fb0e 1119 	mls	r1, lr, r9, r1
 80003f2:	ea43 4101 	orr.w	r1, r3, r1, lsl #16
 80003f6:	fb09 fa08 	mul.w	sl, r9, r8
 80003fa:	458a      	cmp	sl, r1
 80003fc:	fa02 f206 	lsl.w	r2, r2, r6
 8000400:	fa00 f306 	lsl.w	r3, r0, r6
 8000404:	d908      	bls.n	8000418 <__udivmoddi4+0x220>
 8000406:	1861      	adds	r1, r4, r1
 8000408:	f109 30ff 	add.w	r0, r9, #4294967295
 800040c:	d248      	bcs.n	80004a0 <__udivmoddi4+0x2a8>
 800040e:	458a      	cmp	sl, r1
 8000410:	d946      	bls.n	80004a0 <__udivmoddi4+0x2a8>
 8000412:	f1a9 0902 	sub.w	r9, r9, #2
 8000416:	4421      	add	r1, r4
 8000418:	eba1 010a 	sub.w	r1, r1, sl
 800041c:	b2bf      	uxth	r7, r7
 800041e:	fbb1 f0fe 	udiv	r0, r1, lr
 8000422:	fb0e 1110 	mls	r1, lr, r0, r1
 8000426:	ea47 4701 	orr.w	r7, r7, r1, lsl #16
 800042a:	fb00 f808 	mul.w	r8, r0, r8
 800042e:	45b8      	cmp	r8, r7
 8000430:	d907      	bls.n	8000442 <__udivmoddi4+0x24a>
 8000432:	19e7      	adds	r7, r4, r7
 8000434:	f100 31ff 	add.w	r1, r0, #4294967295
 8000438:	d22e      	bcs.n	8000498 <__udivmoddi4+0x2a0>
 800043a:	45b8      	cmp	r8, r7
 800043c:	d92c      	bls.n	8000498 <__udivmoddi4+0x2a0>
 800043e:	3802      	subs	r0, #2
 8000440:	4427      	add	r7, r4
 8000442:	ea40 4009 	orr.w	r0, r0, r9, lsl #16
 8000446:	eba7 0708 	sub.w	r7, r7, r8
 800044a:	fba0 8902 	umull	r8, r9, r0, r2
 800044e:	454f      	cmp	r7, r9
 8000450:	46c6      	mov	lr, r8
 8000452:	4649      	mov	r1, r9
 8000454:	d31a      	bcc.n	800048c <__udivmoddi4+0x294>
 8000456:	d017      	beq.n	8000488 <__udivmoddi4+0x290>
 8000458:	b15d      	cbz	r5, 8000472 <__udivmoddi4+0x27a>
 800045a:	ebb3 020e 	subs.w	r2, r3, lr
 800045e:	eb67 0701 	sbc.w	r7, r7, r1
 8000462:	fa07 fc0c 	lsl.w	ip, r7, ip
 8000466:	40f2      	lsrs	r2, r6
 8000468:	ea4c 0202 	orr.w	r2, ip, r2
 800046c:	40f7      	lsrs	r7, r6
 800046e:	e9c5 2700 	strd	r2, r7, [r5]
 8000472:	2600      	movs	r6, #0
 8000474:	4631      	mov	r1, r6
 8000476:	e8bd 87f0 	ldmia.w	sp!, {r4, r5, r6, r7, r8, r9, sl, pc}
 800047a:	462e      	mov	r6, r5
 800047c:	4628      	mov	r0, r5
 800047e:	e70b      	b.n	8000298 <__udivmoddi4+0xa0>
 8000480:	4606      	mov	r6, r0
 8000482:	e6e9      	b.n	8000258 <__udivmoddi4+0x60>
 8000484:	4618      	mov	r0, r3
 8000486:	e6fd      	b.n	8000284 <__udivmoddi4+0x8c>
 8000488:	4543      	cmp	r3, r8
 800048a:	d2e5      	bcs.n	8000458 <__udivmoddi4+0x260>
 800048c:	ebb8 0e02 	subs.w	lr, r8, r2
 8000490:	eb69 0104 	sbc.w	r1, r9, r4
 8000494:	3801      	subs	r0, #1
 8000496:	e7df      	b.n	8000458 <__udivmoddi4+0x260>
 8000498:	4608      	mov	r0, r1
 800049a:	e7d2      	b.n	8000442 <__udivmoddi4+0x24a>
 800049c:	4660      	mov	r0, ip
 800049e:	e78d      	b.n	80003bc <__udivmoddi4+0x1c4>
 80004a0:	4681      	mov	r9, r0
 80004a2:	e7b9      	b.n	8000418 <__udivmoddi4+0x220>
 80004a4:	4666      	mov	r6, ip
 80004a6:	e775      	b.n	8000394 <__udivmoddi4+0x19c>
 80004a8:	4630      	mov	r0, r6
 80004aa:	e74a      	b.n	8000342 <__udivmoddi4+0x14a>
 80004ac:	f1ac 0c02 	sub.w	ip, ip, #2
 80004b0:	4439      	add	r1, r7
 80004b2:	e713      	b.n	80002dc <__udivmoddi4+0xe4>
 80004b4:	3802      	subs	r0, #2
 80004b6:	443c      	add	r4, r7
 80004b8:	e724      	b.n	8000304 <__udivmoddi4+0x10c>
 80004ba:	bf00      	nop

080004bc <__aeabi_idiv0>:
 80004bc:	4770      	bx	lr
 80004be:	bf00      	nop

080004c0 <main>:
/**
  * @brief  The application entry point.
  * @retval int
  */
int main(void)
{
 80004c0:	b580      	push	{r7, lr}
 80004c2:	b086      	sub	sp, #24
 80004c4:	af00      	add	r7, sp, #0
  /* USER CODE END 1 */

  /* MCU Configuration--------------------------------------------------------*/

  /* Reset of all peripherals, Initializes the Flash interface and the Systick. */
  HAL_Init();
 80004c6:	f000 fa6d 	bl	80009a4 <HAL_Init>
  /* USER CODE BEGIN Init */

  /* USER CODE END Init */

  /* Configure the system clock */
  SystemClock_Config();
 80004ca:	f000 f817 	bl	80004fc <SystemClock_Config>
  /* USER CODE BEGIN SysInit */

  /* USER CODE END SysInit */

  /* Initialize all configured peripherals */
  MX_GPIO_Init();
 80004ce:	f000 f8d3 	bl	8000678 <MX_GPIO_Init>
  MX_SPI2_Init();
 80004d2:	f000 f871 	bl	80005b8 <MX_SPI2_Init>
  MX_USART2_UART_Init();
 80004d6:	f000 f8a5 	bl	8000624 <MX_USART2_UART_Init>
  /* USER CODE BEGIN 2 */
  int segmento=0;
 80004da:	2300      	movs	r3, #0
 80004dc:	617b      	str	r3, [r7, #20]
  while (1)
  {
    /* USER CODE END WHILE */

    /* USER CODE BEGIN 3 */
	 HAL_UART_Transmit(&huart2, (uint8_t *)"Transfer:\n\r", sizeof("Transfer: \n\r"), 50);
 80004de:	2332      	movs	r3, #50	; 0x32
 80004e0:	220d      	movs	r2, #13
 80004e2:	4904      	ldr	r1, [pc, #16]	; (80004f4 <main+0x34>)
 80004e4:	4804      	ldr	r0, [pc, #16]	; (80004f8 <main+0x38>)
 80004e6:	f001 faad 	bl	8001a44 <HAL_UART_Transmit>
//	  segmento=transfer();
//	  sprintf(buffer, "segmento %d\n\r", segmento);
//	  HAL_UART_Transmit(&huart2, (uint8_t *)buffer, sizeof(buffer), 50);
	 HAL_Delay(200);
 80004ea:	20c8      	movs	r0, #200	; 0xc8
 80004ec:	f000 facc 	bl	8000a88 <HAL_Delay>
	 HAL_UART_Transmit(&huart2, (uint8_t *)"Transfer:\n\r", sizeof("Transfer: \n\r"), 50);
 80004f0:	e7f5      	b.n	80004de <main+0x1e>
 80004f2:	bf00      	nop
 80004f4:	08002078 	.word	0x08002078
 80004f8:	20000310 	.word	0x20000310

080004fc <SystemClock_Config>:
/**
  * @brief System Clock Configuration
  * @retval None
  */
void SystemClock_Config(void)
{
 80004fc:	b580      	push	{r7, lr}
 80004fe:	b094      	sub	sp, #80	; 0x50
 8000500:	af00      	add	r7, sp, #0
  RCC_OscInitTypeDef RCC_OscInitStruct = {0};
 8000502:	f107 0320 	add.w	r3, r7, #32
 8000506:	2230      	movs	r2, #48	; 0x30
 8000508:	2100      	movs	r1, #0
 800050a:	4618      	mov	r0, r3
 800050c:	f001 fd86 	bl	800201c <memset>
  RCC_ClkInitTypeDef RCC_ClkInitStruct = {0};
 8000510:	f107 030c 	add.w	r3, r7, #12
 8000514:	2200      	movs	r2, #0
 8000516:	601a      	str	r2, [r3, #0]
 8000518:	605a      	str	r2, [r3, #4]
 800051a:	609a      	str	r2, [r3, #8]
 800051c:	60da      	str	r2, [r3, #12]
 800051e:	611a      	str	r2, [r3, #16]

  /** Configure the main internal regulator output voltage
  */
  __HAL_RCC_PWR_CLK_ENABLE();
 8000520:	2300      	movs	r3, #0
 8000522:	60bb      	str	r3, [r7, #8]
 8000524:	4b22      	ldr	r3, [pc, #136]	; (80005b0 <SystemClock_Config+0xb4>)
 8000526:	6c1b      	ldr	r3, [r3, #64]	; 0x40
 8000528:	4a21      	ldr	r2, [pc, #132]	; (80005b0 <SystemClock_Config+0xb4>)
 800052a:	f043 5380 	orr.w	r3, r3, #268435456	; 0x10000000
 800052e:	6413      	str	r3, [r2, #64]	; 0x40
 8000530:	4b1f      	ldr	r3, [pc, #124]	; (80005b0 <SystemClock_Config+0xb4>)
 8000532:	6c1b      	ldr	r3, [r3, #64]	; 0x40
 8000534:	f003 5380 	and.w	r3, r3, #268435456	; 0x10000000
 8000538:	60bb      	str	r3, [r7, #8]
 800053a:	68bb      	ldr	r3, [r7, #8]
  __HAL_PWR_VOLTAGESCALING_CONFIG(PWR_REGULATOR_VOLTAGE_SCALE1);
 800053c:	2300      	movs	r3, #0
 800053e:	607b      	str	r3, [r7, #4]
 8000540:	4b1c      	ldr	r3, [pc, #112]	; (80005b4 <SystemClock_Config+0xb8>)
 8000542:	681b      	ldr	r3, [r3, #0]
 8000544:	4a1b      	ldr	r2, [pc, #108]	; (80005b4 <SystemClock_Config+0xb8>)
 8000546:	f443 4380 	orr.w	r3, r3, #16384	; 0x4000
 800054a:	6013      	str	r3, [r2, #0]
 800054c:	4b19      	ldr	r3, [pc, #100]	; (80005b4 <SystemClock_Config+0xb8>)
 800054e:	681b      	ldr	r3, [r3, #0]
 8000550:	f403 4380 	and.w	r3, r3, #16384	; 0x4000
 8000554:	607b      	str	r3, [r7, #4]
 8000556:	687b      	ldr	r3, [r7, #4]
  /** Initializes the RCC Oscillators according to the specified parameters
  * in the RCC_OscInitTypeDef structure.
  */
  RCC_OscInitStruct.OscillatorType = RCC_OSCILLATORTYPE_HSI;
 8000558:	2302      	movs	r3, #2
 800055a:	623b      	str	r3, [r7, #32]
  RCC_OscInitStruct.HSIState = RCC_HSI_ON;
 800055c:	2301      	movs	r3, #1
 800055e:	62fb      	str	r3, [r7, #44]	; 0x2c
  RCC_OscInitStruct.HSICalibrationValue = RCC_HSICALIBRATION_DEFAULT;
 8000560:	2310      	movs	r3, #16
 8000562:	633b      	str	r3, [r7, #48]	; 0x30
  RCC_OscInitStruct.PLL.PLLState = RCC_PLL_NONE;
 8000564:	2300      	movs	r3, #0
 8000566:	63bb      	str	r3, [r7, #56]	; 0x38
  if (HAL_RCC_OscConfig(&RCC_OscInitStruct) != HAL_OK)
 8000568:	f107 0320 	add.w	r3, r7, #32
 800056c:	4618      	mov	r0, r3
 800056e:	f000 fd4b 	bl	8001008 <HAL_RCC_OscConfig>
 8000572:	4603      	mov	r3, r0
 8000574:	2b00      	cmp	r3, #0
 8000576:	d001      	beq.n	800057c <SystemClock_Config+0x80>
  {
    Error_Handler();
 8000578:	f000 f8f0 	bl	800075c <Error_Handler>
  }
  /** Initializes the CPU, AHB and APB buses clocks
  */
  RCC_ClkInitStruct.ClockType = RCC_CLOCKTYPE_HCLK|RCC_CLOCKTYPE_SYSCLK
 800057c:	230f      	movs	r3, #15
 800057e:	60fb      	str	r3, [r7, #12]
                              |RCC_CLOCKTYPE_PCLK1|RCC_CLOCKTYPE_PCLK2;
  RCC_ClkInitStruct.SYSCLKSource = RCC_SYSCLKSOURCE_HSI;
 8000580:	2300      	movs	r3, #0
 8000582:	613b      	str	r3, [r7, #16]
  RCC_ClkInitStruct.AHBCLKDivider = RCC_SYSCLK_DIV1;
 8000584:	2300      	movs	r3, #0
 8000586:	617b      	str	r3, [r7, #20]
  RCC_ClkInitStruct.APB1CLKDivider = RCC_HCLK_DIV1;
 8000588:	2300      	movs	r3, #0
 800058a:	61bb      	str	r3, [r7, #24]
  RCC_ClkInitStruct.APB2CLKDivider = RCC_HCLK_DIV1;
 800058c:	2300      	movs	r3, #0
 800058e:	61fb      	str	r3, [r7, #28]

  if (HAL_RCC_ClockConfig(&RCC_ClkInitStruct, FLASH_LATENCY_0) != HAL_OK)
 8000590:	f107 030c 	add.w	r3, r7, #12
 8000594:	2100      	movs	r1, #0
 8000596:	4618      	mov	r0, r3
 8000598:	f000 ffae 	bl	80014f8 <HAL_RCC_ClockConfig>
 800059c:	4603      	mov	r3, r0
 800059e:	2b00      	cmp	r3, #0
 80005a0:	d001      	beq.n	80005a6 <SystemClock_Config+0xaa>
  {
    Error_Handler();
 80005a2:	f000 f8db 	bl	800075c <Error_Handler>
  }
}
 80005a6:	bf00      	nop
 80005a8:	3750      	adds	r7, #80	; 0x50
 80005aa:	46bd      	mov	sp, r7
 80005ac:	bd80      	pop	{r7, pc}
 80005ae:	bf00      	nop
 80005b0:	40023800 	.word	0x40023800
 80005b4:	40007000 	.word	0x40007000

080005b8 <MX_SPI2_Init>:
  * @brief SPI2 Initialization Function
  * @param None
  * @retval None
  */
static void MX_SPI2_Init(void)
{
 80005b8:	b580      	push	{r7, lr}
 80005ba:	af00      	add	r7, sp, #0

  /* USER CODE BEGIN SPI2_Init 1 */

  /* USER CODE END SPI2_Init 1 */
  /* SPI2 parameter configuration*/
  hspi2.Instance = SPI2;
 80005bc:	4b17      	ldr	r3, [pc, #92]	; (800061c <MX_SPI2_Init+0x64>)
 80005be:	4a18      	ldr	r2, [pc, #96]	; (8000620 <MX_SPI2_Init+0x68>)
 80005c0:	601a      	str	r2, [r3, #0]
  hspi2.Init.Mode = SPI_MODE_MASTER;
 80005c2:	4b16      	ldr	r3, [pc, #88]	; (800061c <MX_SPI2_Init+0x64>)
 80005c4:	f44f 7282 	mov.w	r2, #260	; 0x104
 80005c8:	605a      	str	r2, [r3, #4]
  hspi2.Init.Direction = SPI_DIRECTION_2LINES;
 80005ca:	4b14      	ldr	r3, [pc, #80]	; (800061c <MX_SPI2_Init+0x64>)
 80005cc:	2200      	movs	r2, #0
 80005ce:	609a      	str	r2, [r3, #8]
  hspi2.Init.DataSize = SPI_DATASIZE_8BIT;
 80005d0:	4b12      	ldr	r3, [pc, #72]	; (800061c <MX_SPI2_Init+0x64>)
 80005d2:	2200      	movs	r2, #0
 80005d4:	60da      	str	r2, [r3, #12]
  hspi2.Init.CLKPolarity = SPI_POLARITY_HIGH;
 80005d6:	4b11      	ldr	r3, [pc, #68]	; (800061c <MX_SPI2_Init+0x64>)
 80005d8:	2202      	movs	r2, #2
 80005da:	611a      	str	r2, [r3, #16]
  hspi2.Init.CLKPhase = SPI_PHASE_2EDGE;
 80005dc:	4b0f      	ldr	r3, [pc, #60]	; (800061c <MX_SPI2_Init+0x64>)
 80005de:	2201      	movs	r2, #1
 80005e0:	615a      	str	r2, [r3, #20]
  hspi2.Init.NSS = SPI_NSS_HARD_OUTPUT;
 80005e2:	4b0e      	ldr	r3, [pc, #56]	; (800061c <MX_SPI2_Init+0x64>)
 80005e4:	f44f 2280 	mov.w	r2, #262144	; 0x40000
 80005e8:	619a      	str	r2, [r3, #24]
  hspi2.Init.BaudRatePrescaler = SPI_BAUDRATEPRESCALER_2;
 80005ea:	4b0c      	ldr	r3, [pc, #48]	; (800061c <MX_SPI2_Init+0x64>)
 80005ec:	2200      	movs	r2, #0
 80005ee:	61da      	str	r2, [r3, #28]
  hspi2.Init.FirstBit = SPI_FIRSTBIT_MSB;
 80005f0:	4b0a      	ldr	r3, [pc, #40]	; (800061c <MX_SPI2_Init+0x64>)
 80005f2:	2200      	movs	r2, #0
 80005f4:	621a      	str	r2, [r3, #32]
  hspi2.Init.TIMode = SPI_TIMODE_DISABLE;
 80005f6:	4b09      	ldr	r3, [pc, #36]	; (800061c <MX_SPI2_Init+0x64>)
 80005f8:	2200      	movs	r2, #0
 80005fa:	625a      	str	r2, [r3, #36]	; 0x24
  hspi2.Init.CRCCalculation = SPI_CRCCALCULATION_DISABLE;
 80005fc:	4b07      	ldr	r3, [pc, #28]	; (800061c <MX_SPI2_Init+0x64>)
 80005fe:	2200      	movs	r2, #0
 8000600:	629a      	str	r2, [r3, #40]	; 0x28
  hspi2.Init.CRCPolynomial = 10;
 8000602:	4b06      	ldr	r3, [pc, #24]	; (800061c <MX_SPI2_Init+0x64>)
 8000604:	220a      	movs	r2, #10
 8000606:	62da      	str	r2, [r3, #44]	; 0x2c
  if (HAL_SPI_Init(&hspi2) != HAL_OK)
 8000608:	4804      	ldr	r0, [pc, #16]	; (800061c <MX_SPI2_Init+0x64>)
 800060a:	f001 f945 	bl	8001898 <HAL_SPI_Init>
 800060e:	4603      	mov	r3, r0
 8000610:	2b00      	cmp	r3, #0
 8000612:	d001      	beq.n	8000618 <MX_SPI2_Init+0x60>
  {
    Error_Handler();
 8000614:	f000 f8a2 	bl	800075c <Error_Handler>
  }
  /* USER CODE BEGIN SPI2_Init 2 */

  /* USER CODE END SPI2_Init 2 */

}
 8000618:	bf00      	nop
 800061a:	bd80      	pop	{r7, pc}
 800061c:	20000028 	.word	0x20000028
 8000620:	40003800 	.word	0x40003800

08000624 <MX_USART2_UART_Init>:
  * @brief USART2 Initialization Function
  * @param None
  * @retval None
  */
static void MX_USART2_UART_Init(void)
{
 8000624:	b580      	push	{r7, lr}
 8000626:	af00      	add	r7, sp, #0
  /* USER CODE END USART2_Init 0 */

  /* USER CODE BEGIN USART2_Init 1 */

  /* USER CODE END USART2_Init 1 */
  huart2.Instance = USART2;
 8000628:	4b11      	ldr	r3, [pc, #68]	; (8000670 <MX_USART2_UART_Init+0x4c>)
 800062a:	4a12      	ldr	r2, [pc, #72]	; (8000674 <MX_USART2_UART_Init+0x50>)
 800062c:	601a      	str	r2, [r3, #0]
  huart2.Init.BaudRate = 115200;
 800062e:	4b10      	ldr	r3, [pc, #64]	; (8000670 <MX_USART2_UART_Init+0x4c>)
 8000630:	f44f 32e1 	mov.w	r2, #115200	; 0x1c200
 8000634:	605a      	str	r2, [r3, #4]
  huart2.Init.WordLength = UART_WORDLENGTH_8B;
 8000636:	4b0e      	ldr	r3, [pc, #56]	; (8000670 <MX_USART2_UART_Init+0x4c>)
 8000638:	2200      	movs	r2, #0
 800063a:	609a      	str	r2, [r3, #8]
  huart2.Init.StopBits = UART_STOPBITS_1;
 800063c:	4b0c      	ldr	r3, [pc, #48]	; (8000670 <MX_USART2_UART_Init+0x4c>)
 800063e:	2200      	movs	r2, #0
 8000640:	60da      	str	r2, [r3, #12]
  huart2.Init.Parity = UART_PARITY_NONE;
 8000642:	4b0b      	ldr	r3, [pc, #44]	; (8000670 <MX_USART2_UART_Init+0x4c>)
 8000644:	2200      	movs	r2, #0
 8000646:	611a      	str	r2, [r3, #16]
  huart2.Init.Mode = UART_MODE_TX_RX;
 8000648:	4b09      	ldr	r3, [pc, #36]	; (8000670 <MX_USART2_UART_Init+0x4c>)
 800064a:	220c      	movs	r2, #12
 800064c:	615a      	str	r2, [r3, #20]
  huart2.Init.HwFlowCtl = UART_HWCONTROL_NONE;
 800064e:	4b08      	ldr	r3, [pc, #32]	; (8000670 <MX_USART2_UART_Init+0x4c>)
 8000650:	2200      	movs	r2, #0
 8000652:	619a      	str	r2, [r3, #24]
  huart2.Init.OverSampling = UART_OVERSAMPLING_16;
 8000654:	4b06      	ldr	r3, [pc, #24]	; (8000670 <MX_USART2_UART_Init+0x4c>)
 8000656:	2200      	movs	r2, #0
 8000658:	61da      	str	r2, [r3, #28]
  if (HAL_UART_Init(&huart2) != HAL_OK)
 800065a:	4805      	ldr	r0, [pc, #20]	; (8000670 <MX_USART2_UART_Init+0x4c>)
 800065c:	f001 f9a5 	bl	80019aa <HAL_UART_Init>
 8000660:	4603      	mov	r3, r0
 8000662:	2b00      	cmp	r3, #0
 8000664:	d001      	beq.n	800066a <MX_USART2_UART_Init+0x46>
  {
    Error_Handler();
 8000666:	f000 f879 	bl	800075c <Error_Handler>
  }
  /* USER CODE BEGIN USART2_Init 2 */

  /* USER CODE END USART2_Init 2 */

}
 800066a:	bf00      	nop
 800066c:	bd80      	pop	{r7, pc}
 800066e:	bf00      	nop
 8000670:	20000310 	.word	0x20000310
 8000674:	40004400 	.word	0x40004400

08000678 <MX_GPIO_Init>:
  * @brief GPIO Initialization Function
  * @param None
  * @retval None
  */
static void MX_GPIO_Init(void)
{
 8000678:	b580      	push	{r7, lr}
 800067a:	b08a      	sub	sp, #40	; 0x28
 800067c:	af00      	add	r7, sp, #0
  GPIO_InitTypeDef GPIO_InitStruct = {0};
 800067e:	f107 0314 	add.w	r3, r7, #20
 8000682:	2200      	movs	r2, #0
 8000684:	601a      	str	r2, [r3, #0]
 8000686:	605a      	str	r2, [r3, #4]
 8000688:	609a      	str	r2, [r3, #8]
 800068a:	60da      	str	r2, [r3, #12]
 800068c:	611a      	str	r2, [r3, #16]

  /* GPIO Ports Clock Enable */
  __HAL_RCC_GPIOC_CLK_ENABLE();
 800068e:	2300      	movs	r3, #0
 8000690:	613b      	str	r3, [r7, #16]
 8000692:	4b2f      	ldr	r3, [pc, #188]	; (8000750 <MX_GPIO_Init+0xd8>)
 8000694:	6b1b      	ldr	r3, [r3, #48]	; 0x30
 8000696:	4a2e      	ldr	r2, [pc, #184]	; (8000750 <MX_GPIO_Init+0xd8>)
 8000698:	f043 0304 	orr.w	r3, r3, #4
 800069c:	6313      	str	r3, [r2, #48]	; 0x30
 800069e:	4b2c      	ldr	r3, [pc, #176]	; (8000750 <MX_GPIO_Init+0xd8>)
 80006a0:	6b1b      	ldr	r3, [r3, #48]	; 0x30
 80006a2:	f003 0304 	and.w	r3, r3, #4
 80006a6:	613b      	str	r3, [r7, #16]
 80006a8:	693b      	ldr	r3, [r7, #16]
  __HAL_RCC_GPIOA_CLK_ENABLE();
 80006aa:	2300      	movs	r3, #0
 80006ac:	60fb      	str	r3, [r7, #12]
 80006ae:	4b28      	ldr	r3, [pc, #160]	; (8000750 <MX_GPIO_Init+0xd8>)
 80006b0:	6b1b      	ldr	r3, [r3, #48]	; 0x30
 80006b2:	4a27      	ldr	r2, [pc, #156]	; (8000750 <MX_GPIO_Init+0xd8>)
 80006b4:	f043 0301 	orr.w	r3, r3, #1
 80006b8:	6313      	str	r3, [r2, #48]	; 0x30
 80006ba:	4b25      	ldr	r3, [pc, #148]	; (8000750 <MX_GPIO_Init+0xd8>)
 80006bc:	6b1b      	ldr	r3, [r3, #48]	; 0x30
 80006be:	f003 0301 	and.w	r3, r3, #1
 80006c2:	60fb      	str	r3, [r7, #12]
 80006c4:	68fb      	ldr	r3, [r7, #12]
  __HAL_RCC_GPIOB_CLK_ENABLE();
 80006c6:	2300      	movs	r3, #0
 80006c8:	60bb      	str	r3, [r7, #8]
 80006ca:	4b21      	ldr	r3, [pc, #132]	; (8000750 <MX_GPIO_Init+0xd8>)
 80006cc:	6b1b      	ldr	r3, [r3, #48]	; 0x30
 80006ce:	4a20      	ldr	r2, [pc, #128]	; (8000750 <MX_GPIO_Init+0xd8>)
 80006d0:	f043 0302 	orr.w	r3, r3, #2
 80006d4:	6313      	str	r3, [r2, #48]	; 0x30
 80006d6:	4b1e      	ldr	r3, [pc, #120]	; (8000750 <MX_GPIO_Init+0xd8>)
 80006d8:	6b1b      	ldr	r3, [r3, #48]	; 0x30
 80006da:	f003 0302 	and.w	r3, r3, #2
 80006de:	60bb      	str	r3, [r7, #8]
 80006e0:	68bb      	ldr	r3, [r7, #8]
  __HAL_RCC_GPIOD_CLK_ENABLE();
 80006e2:	2300      	movs	r3, #0
 80006e4:	607b      	str	r3, [r7, #4]
 80006e6:	4b1a      	ldr	r3, [pc, #104]	; (8000750 <MX_GPIO_Init+0xd8>)
 80006e8:	6b1b      	ldr	r3, [r3, #48]	; 0x30
 80006ea:	4a19      	ldr	r2, [pc, #100]	; (8000750 <MX_GPIO_Init+0xd8>)
 80006ec:	f043 0308 	orr.w	r3, r3, #8
 80006f0:	6313      	str	r3, [r2, #48]	; 0x30
 80006f2:	4b17      	ldr	r3, [pc, #92]	; (8000750 <MX_GPIO_Init+0xd8>)
 80006f4:	6b1b      	ldr	r3, [r3, #48]	; 0x30
 80006f6:	f003 0308 	and.w	r3, r3, #8
 80006fa:	607b      	str	r3, [r7, #4]
 80006fc:	687b      	ldr	r3, [r7, #4]

  /*Configure GPIO pin Output Level */
  HAL_GPIO_WritePin(SPI2_CS_GPIO_Port, SPI2_CS_Pin, GPIO_PIN_RESET);
 80006fe:	2200      	movs	r2, #0
 8000700:	2104      	movs	r1, #4
 8000702:	4814      	ldr	r0, [pc, #80]	; (8000754 <MX_GPIO_Init+0xdc>)
 8000704:	f000 fc66 	bl	8000fd4 <HAL_GPIO_WritePin>

  /*Configure GPIO pin : SPI2_CS_Pin */
  GPIO_InitStruct.Pin = SPI2_CS_Pin;
 8000708:	2304      	movs	r3, #4
 800070a:	617b      	str	r3, [r7, #20]
  GPIO_InitStruct.Mode = GPIO_MODE_OUTPUT_PP;
 800070c:	2301      	movs	r3, #1
 800070e:	61bb      	str	r3, [r7, #24]
  GPIO_InitStruct.Pull = GPIO_NOPULL;
 8000710:	2300      	movs	r3, #0
 8000712:	61fb      	str	r3, [r7, #28]
  GPIO_InitStruct.Speed = GPIO_SPEED_FREQ_VERY_HIGH;
 8000714:	2303      	movs	r3, #3
 8000716:	623b      	str	r3, [r7, #32]
  HAL_GPIO_Init(SPI2_CS_GPIO_Port, &GPIO_InitStruct);
 8000718:	f107 0314 	add.w	r3, r7, #20
 800071c:	4619      	mov	r1, r3
 800071e:	480d      	ldr	r0, [pc, #52]	; (8000754 <MX_GPIO_Init+0xdc>)
 8000720:	f000 fabc 	bl	8000c9c <HAL_GPIO_Init>

  /*Configure GPIO pin : PD8 */
  GPIO_InitStruct.Pin = GPIO_PIN_8;
 8000724:	f44f 7380 	mov.w	r3, #256	; 0x100
 8000728:	617b      	str	r3, [r7, #20]
  GPIO_InitStruct.Mode = GPIO_MODE_AF_PP;
 800072a:	2302      	movs	r3, #2
 800072c:	61bb      	str	r3, [r7, #24]
  GPIO_InitStruct.Pull = GPIO_NOPULL;
 800072e:	2300      	movs	r3, #0
 8000730:	61fb      	str	r3, [r7, #28]
  GPIO_InitStruct.Speed = GPIO_SPEED_FREQ_VERY_HIGH;
 8000732:	2303      	movs	r3, #3
 8000734:	623b      	str	r3, [r7, #32]
  GPIO_InitStruct.Alternate = GPIO_AF7_USART3;
 8000736:	2307      	movs	r3, #7
 8000738:	627b      	str	r3, [r7, #36]	; 0x24
  HAL_GPIO_Init(GPIOD, &GPIO_InitStruct);
 800073a:	f107 0314 	add.w	r3, r7, #20
 800073e:	4619      	mov	r1, r3
 8000740:	4805      	ldr	r0, [pc, #20]	; (8000758 <MX_GPIO_Init+0xe0>)
 8000742:	f000 faab 	bl	8000c9c <HAL_GPIO_Init>

}
 8000746:	bf00      	nop
 8000748:	3728      	adds	r7, #40	; 0x28
 800074a:	46bd      	mov	sp, r7
 800074c:	bd80      	pop	{r7, pc}
 800074e:	bf00      	nop
 8000750:	40023800 	.word	0x40023800
 8000754:	40020800 	.word	0x40020800
 8000758:	40020c00 	.word	0x40020c00

0800075c <Error_Handler>:
/**
  * @brief  This function is executed in case of error occurrence.
  * @retval None
  */
void Error_Handler(void)
{
 800075c:	b480      	push	{r7}
 800075e:	af00      	add	r7, sp, #0
  \details Disables IRQ interrupts by setting the I-bit in the CPSR.
           Can only be executed in Privileged modes.
 */
__STATIC_FORCEINLINE void __disable_irq(void)
{
  __ASM volatile ("cpsid i" : : : "memory");
 8000760:	b672      	cpsid	i
}
 8000762:	bf00      	nop
  /* USER CODE BEGIN Error_Handler_Debug */
  /* User can add his own implementation to report the HAL error return state */
  __disable_irq();
  while (1)
 8000764:	e7fe      	b.n	8000764 <Error_Handler+0x8>
	...

08000768 <HAL_MspInit>:
/* USER CODE END 0 */
/**
  * Initializes the Global MSP.
  */
void HAL_MspInit(void)
{
 8000768:	b480      	push	{r7}
 800076a:	b083      	sub	sp, #12
 800076c:	af00      	add	r7, sp, #0
  /* USER CODE BEGIN MspInit 0 */

  /* USER CODE END MspInit 0 */

  __HAL_RCC_SYSCFG_CLK_ENABLE();
 800076e:	2300      	movs	r3, #0
 8000770:	607b      	str	r3, [r7, #4]
 8000772:	4b10      	ldr	r3, [pc, #64]	; (80007b4 <HAL_MspInit+0x4c>)
 8000774:	6c5b      	ldr	r3, [r3, #68]	; 0x44
 8000776:	4a0f      	ldr	r2, [pc, #60]	; (80007b4 <HAL_MspInit+0x4c>)
 8000778:	f443 4380 	orr.w	r3, r3, #16384	; 0x4000
 800077c:	6453      	str	r3, [r2, #68]	; 0x44
 800077e:	4b0d      	ldr	r3, [pc, #52]	; (80007b4 <HAL_MspInit+0x4c>)
 8000780:	6c5b      	ldr	r3, [r3, #68]	; 0x44
 8000782:	f403 4380 	and.w	r3, r3, #16384	; 0x4000
 8000786:	607b      	str	r3, [r7, #4]
 8000788:	687b      	ldr	r3, [r7, #4]
  __HAL_RCC_PWR_CLK_ENABLE();
 800078a:	2300      	movs	r3, #0
 800078c:	603b      	str	r3, [r7, #0]
 800078e:	4b09      	ldr	r3, [pc, #36]	; (80007b4 <HAL_MspInit+0x4c>)
 8000790:	6c1b      	ldr	r3, [r3, #64]	; 0x40
 8000792:	4a08      	ldr	r2, [pc, #32]	; (80007b4 <HAL_MspInit+0x4c>)
 8000794:	f043 5380 	orr.w	r3, r3, #268435456	; 0x10000000
 8000798:	6413      	str	r3, [r2, #64]	; 0x40
 800079a:	4b06      	ldr	r3, [pc, #24]	; (80007b4 <HAL_MspInit+0x4c>)
 800079c:	6c1b      	ldr	r3, [r3, #64]	; 0x40
 800079e:	f003 5380 	and.w	r3, r3, #268435456	; 0x10000000
 80007a2:	603b      	str	r3, [r7, #0]
 80007a4:	683b      	ldr	r3, [r7, #0]
  /* System interrupt init*/

  /* USER CODE BEGIN MspInit 1 */

  /* USER CODE END MspInit 1 */
}
 80007a6:	bf00      	nop
 80007a8:	370c      	adds	r7, #12
 80007aa:	46bd      	mov	sp, r7
 80007ac:	f85d 7b04 	ldr.w	r7, [sp], #4
 80007b0:	4770      	bx	lr
 80007b2:	bf00      	nop
 80007b4:	40023800 	.word	0x40023800

080007b8 <HAL_SPI_MspInit>:
* This function configures the hardware resources used in this example
* @param hspi: SPI handle pointer
* @retval None
*/
void HAL_SPI_MspInit(SPI_HandleTypeDef* hspi)
{
 80007b8:	b580      	push	{r7, lr}
 80007ba:	b08a      	sub	sp, #40	; 0x28
 80007bc:	af00      	add	r7, sp, #0
 80007be:	6078      	str	r0, [r7, #4]
  GPIO_InitTypeDef GPIO_InitStruct = {0};
 80007c0:	f107 0314 	add.w	r3, r7, #20
 80007c4:	2200      	movs	r2, #0
 80007c6:	601a      	str	r2, [r3, #0]
 80007c8:	605a      	str	r2, [r3, #4]
 80007ca:	609a      	str	r2, [r3, #8]
 80007cc:	60da      	str	r2, [r3, #12]
 80007ce:	611a      	str	r2, [r3, #16]
  if(hspi->Instance==SPI2)
 80007d0:	687b      	ldr	r3, [r7, #4]
 80007d2:	681b      	ldr	r3, [r3, #0]
 80007d4:	4a19      	ldr	r2, [pc, #100]	; (800083c <HAL_SPI_MspInit+0x84>)
 80007d6:	4293      	cmp	r3, r2
 80007d8:	d12c      	bne.n	8000834 <HAL_SPI_MspInit+0x7c>
  {
  /* USER CODE BEGIN SPI2_MspInit 0 */

  /* USER CODE END SPI2_MspInit 0 */
    /* Peripheral clock enable */
    __HAL_RCC_SPI2_CLK_ENABLE();
 80007da:	2300      	movs	r3, #0
 80007dc:	613b      	str	r3, [r7, #16]
 80007de:	4b18      	ldr	r3, [pc, #96]	; (8000840 <HAL_SPI_MspInit+0x88>)
 80007e0:	6c1b      	ldr	r3, [r3, #64]	; 0x40
 80007e2:	4a17      	ldr	r2, [pc, #92]	; (8000840 <HAL_SPI_MspInit+0x88>)
 80007e4:	f443 4380 	orr.w	r3, r3, #16384	; 0x4000
 80007e8:	6413      	str	r3, [r2, #64]	; 0x40
 80007ea:	4b15      	ldr	r3, [pc, #84]	; (8000840 <HAL_SPI_MspInit+0x88>)
 80007ec:	6c1b      	ldr	r3, [r3, #64]	; 0x40
 80007ee:	f403 4380 	and.w	r3, r3, #16384	; 0x4000
 80007f2:	613b      	str	r3, [r7, #16]
 80007f4:	693b      	ldr	r3, [r7, #16]

    __HAL_RCC_GPIOB_CLK_ENABLE();
 80007f6:	2300      	movs	r3, #0
 80007f8:	60fb      	str	r3, [r7, #12]
 80007fa:	4b11      	ldr	r3, [pc, #68]	; (8000840 <HAL_SPI_MspInit+0x88>)
 80007fc:	6b1b      	ldr	r3, [r3, #48]	; 0x30
 80007fe:	4a10      	ldr	r2, [pc, #64]	; (8000840 <HAL_SPI_MspInit+0x88>)
 8000800:	f043 0302 	orr.w	r3, r3, #2
 8000804:	6313      	str	r3, [r2, #48]	; 0x30
 8000806:	4b0e      	ldr	r3, [pc, #56]	; (8000840 <HAL_SPI_MspInit+0x88>)
 8000808:	6b1b      	ldr	r3, [r3, #48]	; 0x30
 800080a:	f003 0302 	and.w	r3, r3, #2
 800080e:	60fb      	str	r3, [r7, #12]
 8000810:	68fb      	ldr	r3, [r7, #12]
    PB12     ------> SPI2_NSS
    PB13     ------> SPI2_SCK
    PB14     ------> SPI2_MISO
    PB15     ------> SPI2_MOSI
    */
    GPIO_InitStruct.Pin = GPIO_PIN_12|GPIO_PIN_13|GPIO_PIN_14|GPIO_PIN_15;
 8000812:	f44f 4370 	mov.w	r3, #61440	; 0xf000
 8000816:	617b      	str	r3, [r7, #20]
    GPIO_InitStruct.Mode = GPIO_MODE_AF_PP;
 8000818:	2302      	movs	r3, #2
 800081a:	61bb      	str	r3, [r7, #24]
    GPIO_InitStruct.Pull = GPIO_NOPULL;
 800081c:	2300      	movs	r3, #0
 800081e:	61fb      	str	r3, [r7, #28]
    GPIO_InitStruct.Speed = GPIO_SPEED_FREQ_VERY_HIGH;
 8000820:	2303      	movs	r3, #3
 8000822:	623b      	str	r3, [r7, #32]
    GPIO_InitStruct.Alternate = GPIO_AF5_SPI2;
 8000824:	2305      	movs	r3, #5
 8000826:	627b      	str	r3, [r7, #36]	; 0x24
    HAL_GPIO_Init(GPIOB, &GPIO_InitStruct);
 8000828:	f107 0314 	add.w	r3, r7, #20
 800082c:	4619      	mov	r1, r3
 800082e:	4805      	ldr	r0, [pc, #20]	; (8000844 <HAL_SPI_MspInit+0x8c>)
 8000830:	f000 fa34 	bl	8000c9c <HAL_GPIO_Init>
  /* USER CODE BEGIN SPI2_MspInit 1 */

  /* USER CODE END SPI2_MspInit 1 */
  }

}
 8000834:	bf00      	nop
 8000836:	3728      	adds	r7, #40	; 0x28
 8000838:	46bd      	mov	sp, r7
 800083a:	bd80      	pop	{r7, pc}
 800083c:	40003800 	.word	0x40003800
 8000840:	40023800 	.word	0x40023800
 8000844:	40020400 	.word	0x40020400

08000848 <HAL_UART_MspInit>:
* This function configures the hardware resources used in this example
* @param huart: UART handle pointer
* @retval None
*/
void HAL_UART_MspInit(UART_HandleTypeDef* huart)
{
 8000848:	b580      	push	{r7, lr}
 800084a:	b08a      	sub	sp, #40	; 0x28
 800084c:	af00      	add	r7, sp, #0
 800084e:	6078      	str	r0, [r7, #4]
  GPIO_InitTypeDef GPIO_InitStruct = {0};
 8000850:	f107 0314 	add.w	r3, r7, #20
 8000854:	2200      	movs	r2, #0
 8000856:	601a      	str	r2, [r3, #0]
 8000858:	605a      	str	r2, [r3, #4]
 800085a:	609a      	str	r2, [r3, #8]
 800085c:	60da      	str	r2, [r3, #12]
 800085e:	611a      	str	r2, [r3, #16]
  if(huart->Instance==USART2)
 8000860:	687b      	ldr	r3, [r7, #4]
 8000862:	681b      	ldr	r3, [r3, #0]
 8000864:	4a19      	ldr	r2, [pc, #100]	; (80008cc <HAL_UART_MspInit+0x84>)
 8000866:	4293      	cmp	r3, r2
 8000868:	d12b      	bne.n	80008c2 <HAL_UART_MspInit+0x7a>
  {
  /* USER CODE BEGIN USART2_MspInit 0 */

  /* USER CODE END USART2_MspInit 0 */
    /* Peripheral clock enable */
    __HAL_RCC_USART2_CLK_ENABLE();
 800086a:	2300      	movs	r3, #0
 800086c:	613b      	str	r3, [r7, #16]
 800086e:	4b18      	ldr	r3, [pc, #96]	; (80008d0 <HAL_UART_MspInit+0x88>)
 8000870:	6c1b      	ldr	r3, [r3, #64]	; 0x40
 8000872:	4a17      	ldr	r2, [pc, #92]	; (80008d0 <HAL_UART_MspInit+0x88>)
 8000874:	f443 3300 	orr.w	r3, r3, #131072	; 0x20000
 8000878:	6413      	str	r3, [r2, #64]	; 0x40
 800087a:	4b15      	ldr	r3, [pc, #84]	; (80008d0 <HAL_UART_MspInit+0x88>)
 800087c:	6c1b      	ldr	r3, [r3, #64]	; 0x40
 800087e:	f403 3300 	and.w	r3, r3, #131072	; 0x20000
 8000882:	613b      	str	r3, [r7, #16]
 8000884:	693b      	ldr	r3, [r7, #16]

    __HAL_RCC_GPIOA_CLK_ENABLE();
 8000886:	2300      	movs	r3, #0
 8000888:	60fb      	str	r3, [r7, #12]
 800088a:	4b11      	ldr	r3, [pc, #68]	; (80008d0 <HAL_UART_MspInit+0x88>)
 800088c:	6b1b      	ldr	r3, [r3, #48]	; 0x30
 800088e:	4a10      	ldr	r2, [pc, #64]	; (80008d0 <HAL_UART_MspInit+0x88>)
 8000890:	f043 0301 	orr.w	r3, r3, #1
 8000894:	6313      	str	r3, [r2, #48]	; 0x30
 8000896:	4b0e      	ldr	r3, [pc, #56]	; (80008d0 <HAL_UART_MspInit+0x88>)
 8000898:	6b1b      	ldr	r3, [r3, #48]	; 0x30
 800089a:	f003 0301 	and.w	r3, r3, #1
 800089e:	60fb      	str	r3, [r7, #12]
 80008a0:	68fb      	ldr	r3, [r7, #12]
    /**USART2 GPIO Configuration
    PA2     ------> USART2_TX
    PA3     ------> USART2_RX
    */
    GPIO_InitStruct.Pin = GPIO_PIN_2|GPIO_PIN_3;
 80008a2:	230c      	movs	r3, #12
 80008a4:	617b      	str	r3, [r7, #20]
    GPIO_InitStruct.Mode = GPIO_MODE_AF_PP;
 80008a6:	2302      	movs	r3, #2
 80008a8:	61bb      	str	r3, [r7, #24]
    GPIO_InitStruct.Pull = GPIO_NOPULL;
 80008aa:	2300      	movs	r3, #0
 80008ac:	61fb      	str	r3, [r7, #28]
    GPIO_InitStruct.Speed = GPIO_SPEED_FREQ_VERY_HIGH;
 80008ae:	2303      	movs	r3, #3
 80008b0:	623b      	str	r3, [r7, #32]
    GPIO_InitStruct.Alternate = GPIO_AF7_USART2;
 80008b2:	2307      	movs	r3, #7
 80008b4:	627b      	str	r3, [r7, #36]	; 0x24
    HAL_GPIO_Init(GPIOA, &GPIO_InitStruct);
 80008b6:	f107 0314 	add.w	r3, r7, #20
 80008ba:	4619      	mov	r1, r3
 80008bc:	4805      	ldr	r0, [pc, #20]	; (80008d4 <HAL_UART_MspInit+0x8c>)
 80008be:	f000 f9ed 	bl	8000c9c <HAL_GPIO_Init>
  /* USER CODE BEGIN USART2_MspInit 1 */

  /* USER CODE END USART2_MspInit 1 */
  }

}
 80008c2:	bf00      	nop
 80008c4:	3728      	adds	r7, #40	; 0x28
 80008c6:	46bd      	mov	sp, r7
 80008c8:	bd80      	pop	{r7, pc}
 80008ca:	bf00      	nop
 80008cc:	40004400 	.word	0x40004400
 80008d0:	40023800 	.word	0x40023800
 80008d4:	40020000 	.word	0x40020000

080008d8 <NMI_Handler>:
/******************************************************************************/
/**
  * @brief This function handles Non maskable interrupt.
  */
void NMI_Handler(void)
{
 80008d8:	b480      	push	{r7}
 80008da:	af00      	add	r7, sp, #0
  /* USER CODE BEGIN NonMaskableInt_IRQn 0 */

  /* USER CODE END NonMaskableInt_IRQn 0 */
  /* USER CODE BEGIN NonMaskableInt_IRQn 1 */
  while (1)
 80008dc:	e7fe      	b.n	80008dc <NMI_Handler+0x4>

080008de <HardFault_Handler>:

/**
  * @brief This function handles Hard fault interrupt.
  */
void HardFault_Handler(void)
{
 80008de:	b480      	push	{r7}
 80008e0:	af00      	add	r7, sp, #0
  /* USER CODE BEGIN HardFault_IRQn 0 */

  /* USER CODE END HardFault_IRQn 0 */
  while (1)
 80008e2:	e7fe      	b.n	80008e2 <HardFault_Handler+0x4>

080008e4 <MemManage_Handler>:

/**
  * @brief This function handles Memory management fault.
  */
void MemManage_Handler(void)
{
 80008e4:	b480      	push	{r7}
 80008e6:	af00      	add	r7, sp, #0
  /* USER CODE BEGIN MemoryManagement_IRQn 0 */

  /* USER CODE END MemoryManagement_IRQn 0 */
  while (1)
 80008e8:	e7fe      	b.n	80008e8 <MemManage_Handler+0x4>

080008ea <BusFault_Handler>:

/**
  * @brief This function handles Pre-fetch fault, memory access fault.
  */
void BusFault_Handler(void)
{
 80008ea:	b480      	push	{r7}
 80008ec:	af00      	add	r7, sp, #0
  /* USER CODE BEGIN BusFault_IRQn 0 */

  /* USER CODE END BusFault_IRQn 0 */
  while (1)
 80008ee:	e7fe      	b.n	80008ee <BusFault_Handler+0x4>

080008f0 <UsageFault_Handler>:

/**
  * @brief This function handles Undefined instruction or illegal state.
  */
void UsageFault_Handler(void)
{
 80008f0:	b480      	push	{r7}
 80008f2:	af00      	add	r7, sp, #0
  /* USER CODE BEGIN UsageFault_IRQn 0 */

  /* USER CODE END UsageFault_IRQn 0 */
  while (1)
 80008f4:	e7fe      	b.n	80008f4 <UsageFault_Handler+0x4>

080008f6 <SVC_Handler>:

/**
  * @brief This function handles System service call via SWI instruction.
  */
void SVC_Handler(void)
{
 80008f6:	b480      	push	{r7}
 80008f8:	af00      	add	r7, sp, #0

  /* USER CODE END SVCall_IRQn 0 */
  /* USER CODE BEGIN SVCall_IRQn 1 */

  /* USER CODE END SVCall_IRQn 1 */
}
 80008fa:	bf00      	nop
 80008fc:	46bd      	mov	sp, r7
 80008fe:	f85d 7b04 	ldr.w	r7, [sp], #4
 8000902:	4770      	bx	lr

08000904 <DebugMon_Handler>:

/**
  * @brief This function handles Debug monitor.
  */
void DebugMon_Handler(void)
{
 8000904:	b480      	push	{r7}
 8000906:	af00      	add	r7, sp, #0

  /* USER CODE END DebugMonitor_IRQn 0 */
  /* USER CODE BEGIN DebugMonitor_IRQn 1 */

  /* USER CODE END DebugMonitor_IRQn 1 */
}
 8000908:	bf00      	nop
 800090a:	46bd      	mov	sp, r7
 800090c:	f85d 7b04 	ldr.w	r7, [sp], #4
 8000910:	4770      	bx	lr

08000912 <PendSV_Handler>:

/**
  * @brief This function handles Pendable request for system service.
  */
void PendSV_Handler(void)
{
 8000912:	b480      	push	{r7}
 8000914:	af00      	add	r7, sp, #0

  /* USER CODE END PendSV_IRQn 0 */
  /* USER CODE BEGIN PendSV_IRQn 1 */

  /* USER CODE END PendSV_IRQn 1 */
}
 8000916:	bf00      	nop
 8000918:	46bd      	mov	sp, r7
 800091a:	f85d 7b04 	ldr.w	r7, [sp], #4
 800091e:	4770      	bx	lr

08000920 <SysTick_Handler>:

/**
  * @brief This function handles System tick timer.
  */
void SysTick_Handler(void)
{
 8000920:	b580      	push	{r7, lr}
 8000922:	af00      	add	r7, sp, #0
  /* USER CODE BEGIN SysTick_IRQn 0 */

  /* USER CODE END SysTick_IRQn 0 */
  HAL_IncTick();
 8000924:	f000 f890 	bl	8000a48 <HAL_IncTick>
  /* USER CODE BEGIN SysTick_IRQn 1 */

  /* USER CODE END SysTick_IRQn 1 */
}
 8000928:	bf00      	nop
 800092a:	bd80      	pop	{r7, pc}

0800092c <SystemInit>:
  *         configuration.
  * @param  None
  * @retval None
  */
void SystemInit(void)
{
 800092c:	b480      	push	{r7}
 800092e:	af00      	add	r7, sp, #0
  /* FPU settings ------------------------------------------------------------*/
  #if (__FPU_PRESENT == 1) && (__FPU_USED == 1)
    SCB->CPACR |= ((3UL << 10*2)|(3UL << 11*2));  /* set CP10 and CP11 Full Access */
 8000930:	4b06      	ldr	r3, [pc, #24]	; (800094c <SystemInit+0x20>)
 8000932:	f8d3 3088 	ldr.w	r3, [r3, #136]	; 0x88
 8000936:	4a05      	ldr	r2, [pc, #20]	; (800094c <SystemInit+0x20>)
 8000938:	f443 0370 	orr.w	r3, r3, #15728640	; 0xf00000
 800093c:	f8c2 3088 	str.w	r3, [r2, #136]	; 0x88

  /* Configure the Vector Table location -------------------------------------*/
#if defined(USER_VECT_TAB_ADDRESS)
  SCB->VTOR = VECT_TAB_BASE_ADDRESS | VECT_TAB_OFFSET; /* Vector Table Relocation in Internal SRAM */
#endif /* USER_VECT_TAB_ADDRESS */
}
 8000940:	bf00      	nop
 8000942:	46bd      	mov	sp, r7
 8000944:	f85d 7b04 	ldr.w	r7, [sp], #4
 8000948:	4770      	bx	lr
 800094a:	bf00      	nop
 800094c:	e000ed00 	.word	0xe000ed00

08000950 <Reset_Handler>:

    .section  .text.Reset_Handler
  .weak  Reset_Handler
  .type  Reset_Handler, %function
Reset_Handler:  
  ldr   sp, =_estack     /* set stack pointer */
 8000950:	f8df d034 	ldr.w	sp, [pc, #52]	; 8000988 <LoopFillZerobss+0x12>

/* Copy the data segment initializers from flash to SRAM */  
  ldr r0, =_sdata
 8000954:	480d      	ldr	r0, [pc, #52]	; (800098c <LoopFillZerobss+0x16>)
  ldr r1, =_edata
 8000956:	490e      	ldr	r1, [pc, #56]	; (8000990 <LoopFillZerobss+0x1a>)
  ldr r2, =_sidata
 8000958:	4a0e      	ldr	r2, [pc, #56]	; (8000994 <LoopFillZerobss+0x1e>)
  movs r3, #0
 800095a:	2300      	movs	r3, #0
  b LoopCopyDataInit
 800095c:	e002      	b.n	8000964 <LoopCopyDataInit>

0800095e <CopyDataInit>:

CopyDataInit:
  ldr r4, [r2, r3]
 800095e:	58d4      	ldr	r4, [r2, r3]
  str r4, [r0, r3]
 8000960:	50c4      	str	r4, [r0, r3]
  adds r3, r3, #4
 8000962:	3304      	adds	r3, #4

08000964 <LoopCopyDataInit>:

LoopCopyDataInit:
  adds r4, r0, r3
 8000964:	18c4      	adds	r4, r0, r3
  cmp r4, r1
 8000966:	428c      	cmp	r4, r1
  bcc CopyDataInit
 8000968:	d3f9      	bcc.n	800095e <CopyDataInit>
  
/* Zero fill the bss segment. */
  ldr r2, =_sbss
 800096a:	4a0b      	ldr	r2, [pc, #44]	; (8000998 <LoopFillZerobss+0x22>)
  ldr r4, =_ebss
 800096c:	4c0b      	ldr	r4, [pc, #44]	; (800099c <LoopFillZerobss+0x26>)
  movs r3, #0
 800096e:	2300      	movs	r3, #0
  b LoopFillZerobss
 8000970:	e001      	b.n	8000976 <LoopFillZerobss>

08000972 <FillZerobss>:

FillZerobss:
  str  r3, [r2]
 8000972:	6013      	str	r3, [r2, #0]
  adds r2, r2, #4
 8000974:	3204      	adds	r2, #4

08000976 <LoopFillZerobss>:

LoopFillZerobss:
  cmp r2, r4
 8000976:	42a2      	cmp	r2, r4
  bcc FillZerobss
 8000978:	d3fb      	bcc.n	8000972 <FillZerobss>

/* Call the clock system intitialization function.*/
  bl  SystemInit   
 800097a:	f7ff ffd7 	bl	800092c <SystemInit>
/* Call static constructors */
    bl __libc_init_array
 800097e:	f001 fb29 	bl	8001fd4 <__libc_init_array>
/* Call the application's entry point.*/
  bl  main
 8000982:	f7ff fd9d 	bl	80004c0 <main>
  bx  lr    
 8000986:	4770      	bx	lr
  ldr   sp, =_estack     /* set stack pointer */
 8000988:	20020000 	.word	0x20020000
  ldr r0, =_sdata
 800098c:	20000000 	.word	0x20000000
  ldr r1, =_edata
 8000990:	2000000c 	.word	0x2000000c
  ldr r2, =_sidata
 8000994:	080020ac 	.word	0x080020ac
  ldr r2, =_sbss
 8000998:	2000000c 	.word	0x2000000c
  ldr r4, =_ebss
 800099c:	20000358 	.word	0x20000358

080009a0 <ADC_IRQHandler>:
 * @retval None       
*/
    .section  .text.Default_Handler,"ax",%progbits
Default_Handler:
Infinite_Loop:
  b  Infinite_Loop
 80009a0:	e7fe      	b.n	80009a0 <ADC_IRQHandler>
	...

080009a4 <HAL_Init>:
  *         need to ensure that the SysTick time base is always set to 1 millisecond
  *         to have correct HAL operation.
  * @retval HAL status
  */
HAL_StatusTypeDef HAL_Init(void)
{
 80009a4:	b580      	push	{r7, lr}
 80009a6:	af00      	add	r7, sp, #0
  /* Configure Flash prefetch, Instruction cache, Data cache */ 
#if (INSTRUCTION_CACHE_ENABLE != 0U)
  __HAL_FLASH_INSTRUCTION_CACHE_ENABLE();
 80009a8:	4b0e      	ldr	r3, [pc, #56]	; (80009e4 <HAL_Init+0x40>)
 80009aa:	681b      	ldr	r3, [r3, #0]
 80009ac:	4a0d      	ldr	r2, [pc, #52]	; (80009e4 <HAL_Init+0x40>)
 80009ae:	f443 7300 	orr.w	r3, r3, #512	; 0x200
 80009b2:	6013      	str	r3, [r2, #0]
#endif /* INSTRUCTION_CACHE_ENABLE */

#if (DATA_CACHE_ENABLE != 0U)
  __HAL_FLASH_DATA_CACHE_ENABLE();
 80009b4:	4b0b      	ldr	r3, [pc, #44]	; (80009e4 <HAL_Init+0x40>)
 80009b6:	681b      	ldr	r3, [r3, #0]
 80009b8:	4a0a      	ldr	r2, [pc, #40]	; (80009e4 <HAL_Init+0x40>)
 80009ba:	f443 6380 	orr.w	r3, r3, #1024	; 0x400
 80009be:	6013      	str	r3, [r2, #0]
#endif /* DATA_CACHE_ENABLE */

#if (PREFETCH_ENABLE != 0U)
  __HAL_FLASH_PREFETCH_BUFFER_ENABLE();
 80009c0:	4b08      	ldr	r3, [pc, #32]	; (80009e4 <HAL_Init+0x40>)
 80009c2:	681b      	ldr	r3, [r3, #0]
 80009c4:	4a07      	ldr	r2, [pc, #28]	; (80009e4 <HAL_Init+0x40>)
 80009c6:	f443 7380 	orr.w	r3, r3, #256	; 0x100
 80009ca:	6013      	str	r3, [r2, #0]
#endif /* PREFETCH_ENABLE */

  /* Set Interrupt Group Priority */
  HAL_NVIC_SetPriorityGrouping(NVIC_PRIORITYGROUP_4);
 80009cc:	2003      	movs	r0, #3
 80009ce:	f000 f931 	bl	8000c34 <HAL_NVIC_SetPriorityGrouping>

  /* Use systick as time base source and configure 1ms tick (default clock after Reset is HSI) */
  HAL_InitTick(TICK_INT_PRIORITY);
 80009d2:	200f      	movs	r0, #15
 80009d4:	f000 f808 	bl	80009e8 <HAL_InitTick>

  /* Init the low level hardware */
  HAL_MspInit();
 80009d8:	f7ff fec6 	bl	8000768 <HAL_MspInit>

  /* Return function status */
  return HAL_OK;
 80009dc:	2300      	movs	r3, #0
}
 80009de:	4618      	mov	r0, r3
 80009e0:	bd80      	pop	{r7, pc}
 80009e2:	bf00      	nop
 80009e4:	40023c00 	.word	0x40023c00

080009e8 <HAL_InitTick>:
  *       implementation  in user file.
  * @param TickPriority Tick interrupt priority.
  * @retval HAL status
  */
__weak HAL_StatusTypeDef HAL_InitTick(uint32_t TickPriority)
{
 80009e8:	b580      	push	{r7, lr}
 80009ea:	b082      	sub	sp, #8
 80009ec:	af00      	add	r7, sp, #0
 80009ee:	6078      	str	r0, [r7, #4]
  /* Configure the SysTick to have interrupt in 1ms time basis*/
  if (HAL_SYSTICK_Config(SystemCoreClock / (1000U / uwTickFreq)) > 0U)
 80009f0:	4b12      	ldr	r3, [pc, #72]	; (8000a3c <HAL_InitTick+0x54>)
 80009f2:	681a      	ldr	r2, [r3, #0]
 80009f4:	4b12      	ldr	r3, [pc, #72]	; (8000a40 <HAL_InitTick+0x58>)
 80009f6:	781b      	ldrb	r3, [r3, #0]
 80009f8:	4619      	mov	r1, r3
 80009fa:	f44f 737a 	mov.w	r3, #1000	; 0x3e8
 80009fe:	fbb3 f3f1 	udiv	r3, r3, r1
 8000a02:	fbb2 f3f3 	udiv	r3, r2, r3
 8000a06:	4618      	mov	r0, r3
 8000a08:	f000 f93b 	bl	8000c82 <HAL_SYSTICK_Config>
 8000a0c:	4603      	mov	r3, r0
 8000a0e:	2b00      	cmp	r3, #0
 8000a10:	d001      	beq.n	8000a16 <HAL_InitTick+0x2e>
  {
    return HAL_ERROR;
 8000a12:	2301      	movs	r3, #1
 8000a14:	e00e      	b.n	8000a34 <HAL_InitTick+0x4c>
  }

  /* Configure the SysTick IRQ priority */
  if (TickPriority < (1UL << __NVIC_PRIO_BITS))
 8000a16:	687b      	ldr	r3, [r7, #4]
 8000a18:	2b0f      	cmp	r3, #15
 8000a1a:	d80a      	bhi.n	8000a32 <HAL_InitTick+0x4a>
  {
    HAL_NVIC_SetPriority(SysTick_IRQn, TickPriority, 0U);
 8000a1c:	2200      	movs	r2, #0
 8000a1e:	6879      	ldr	r1, [r7, #4]
 8000a20:	f04f 30ff 	mov.w	r0, #4294967295
 8000a24:	f000 f911 	bl	8000c4a <HAL_NVIC_SetPriority>
    uwTickPrio = TickPriority;
 8000a28:	4a06      	ldr	r2, [pc, #24]	; (8000a44 <HAL_InitTick+0x5c>)
 8000a2a:	687b      	ldr	r3, [r7, #4]
 8000a2c:	6013      	str	r3, [r2, #0]
  {
    return HAL_ERROR;
  }

  /* Return function status */
  return HAL_OK;
 8000a2e:	2300      	movs	r3, #0
 8000a30:	e000      	b.n	8000a34 <HAL_InitTick+0x4c>
    return HAL_ERROR;
 8000a32:	2301      	movs	r3, #1
}
 8000a34:	4618      	mov	r0, r3
 8000a36:	3708      	adds	r7, #8
 8000a38:	46bd      	mov	sp, r7
 8000a3a:	bd80      	pop	{r7, pc}
 8000a3c:	20000000 	.word	0x20000000
 8000a40:	20000008 	.word	0x20000008
 8000a44:	20000004 	.word	0x20000004

08000a48 <HAL_IncTick>:
 * @note This function is declared as __weak to be overwritten in case of other 
  *      implementations in user file.
  * @retval None
  */
__weak void HAL_IncTick(void)
{
 8000a48:	b480      	push	{r7}
 8000a4a:	af00      	add	r7, sp, #0
  uwTick += uwTickFreq;
 8000a4c:	4b06      	ldr	r3, [pc, #24]	; (8000a68 <HAL_IncTick+0x20>)
 8000a4e:	781b      	ldrb	r3, [r3, #0]
 8000a50:	461a      	mov	r2, r3
 8000a52:	4b06      	ldr	r3, [pc, #24]	; (8000a6c <HAL_IncTick+0x24>)
 8000a54:	681b      	ldr	r3, [r3, #0]
 8000a56:	4413      	add	r3, r2
 8000a58:	4a04      	ldr	r2, [pc, #16]	; (8000a6c <HAL_IncTick+0x24>)
 8000a5a:	6013      	str	r3, [r2, #0]
}
 8000a5c:	bf00      	nop
 8000a5e:	46bd      	mov	sp, r7
 8000a60:	f85d 7b04 	ldr.w	r7, [sp], #4
 8000a64:	4770      	bx	lr
 8000a66:	bf00      	nop
 8000a68:	20000008 	.word	0x20000008
 8000a6c:	20000354 	.word	0x20000354

08000a70 <HAL_GetTick>:
  * @note This function is declared as __weak to be overwritten in case of other 
  *       implementations in user file.
  * @retval tick value
  */
__weak uint32_t HAL_GetTick(void)
{
 8000a70:	b480      	push	{r7}
 8000a72:	af00      	add	r7, sp, #0
  return uwTick;
 8000a74:	4b03      	ldr	r3, [pc, #12]	; (8000a84 <HAL_GetTick+0x14>)
 8000a76:	681b      	ldr	r3, [r3, #0]
}
 8000a78:	4618      	mov	r0, r3
 8000a7a:	46bd      	mov	sp, r7
 8000a7c:	f85d 7b04 	ldr.w	r7, [sp], #4
 8000a80:	4770      	bx	lr
 8000a82:	bf00      	nop
 8000a84:	20000354 	.word	0x20000354

08000a88 <HAL_Delay>:
  *       implementations in user file.
  * @param Delay specifies the delay time length, in milliseconds.
  * @retval None
  */
__weak void HAL_Delay(uint32_t Delay)
{
 8000a88:	b580      	push	{r7, lr}
 8000a8a:	b084      	sub	sp, #16
 8000a8c:	af00      	add	r7, sp, #0
 8000a8e:	6078      	str	r0, [r7, #4]
  uint32_t tickstart = HAL_GetTick();
 8000a90:	f7ff ffee 	bl	8000a70 <HAL_GetTick>
 8000a94:	60b8      	str	r0, [r7, #8]
  uint32_t wait = Delay;
 8000a96:	687b      	ldr	r3, [r7, #4]
 8000a98:	60fb      	str	r3, [r7, #12]

  /* Add a freq to guarantee minimum wait */
  if (wait < HAL_MAX_DELAY)
 8000a9a:	68fb      	ldr	r3, [r7, #12]
 8000a9c:	f1b3 3fff 	cmp.w	r3, #4294967295
 8000aa0:	d005      	beq.n	8000aae <HAL_Delay+0x26>
  {
    wait += (uint32_t)(uwTickFreq);
 8000aa2:	4b0a      	ldr	r3, [pc, #40]	; (8000acc <HAL_Delay+0x44>)
 8000aa4:	781b      	ldrb	r3, [r3, #0]
 8000aa6:	461a      	mov	r2, r3
 8000aa8:	68fb      	ldr	r3, [r7, #12]
 8000aaa:	4413      	add	r3, r2
 8000aac:	60fb      	str	r3, [r7, #12]
  }

  while((HAL_GetTick() - tickstart) < wait)
 8000aae:	bf00      	nop
 8000ab0:	f7ff ffde 	bl	8000a70 <HAL_GetTick>
 8000ab4:	4602      	mov	r2, r0
 8000ab6:	68bb      	ldr	r3, [r7, #8]
 8000ab8:	1ad3      	subs	r3, r2, r3
 8000aba:	68fa      	ldr	r2, [r7, #12]
 8000abc:	429a      	cmp	r2, r3
 8000abe:	d8f7      	bhi.n	8000ab0 <HAL_Delay+0x28>
  {
  }
}
 8000ac0:	bf00      	nop
 8000ac2:	bf00      	nop
 8000ac4:	3710      	adds	r7, #16
 8000ac6:	46bd      	mov	sp, r7
 8000ac8:	bd80      	pop	{r7, pc}
 8000aca:	bf00      	nop
 8000acc:	20000008 	.word	0x20000008

08000ad0 <__NVIC_SetPriorityGrouping>:
           In case of a conflict between priority grouping and available
           priority bits (__NVIC_PRIO_BITS), the smallest possible priority group is set.
  \param [in]      PriorityGroup  Priority grouping field.
 */
__STATIC_INLINE void __NVIC_SetPriorityGrouping(uint32_t PriorityGroup)
{
 8000ad0:	b480      	push	{r7}
 8000ad2:	b085      	sub	sp, #20
 8000ad4:	af00      	add	r7, sp, #0
 8000ad6:	6078      	str	r0, [r7, #4]
  uint32_t reg_value;
  uint32_t PriorityGroupTmp = (PriorityGroup & (uint32_t)0x07UL);             /* only values 0..7 are used          */
 8000ad8:	687b      	ldr	r3, [r7, #4]
 8000ada:	f003 0307 	and.w	r3, r3, #7
 8000ade:	60fb      	str	r3, [r7, #12]

  reg_value  =  SCB->AIRCR;                                                   /* read old register configuration    */
 8000ae0:	4b0c      	ldr	r3, [pc, #48]	; (8000b14 <__NVIC_SetPriorityGrouping+0x44>)
 8000ae2:	68db      	ldr	r3, [r3, #12]
 8000ae4:	60bb      	str	r3, [r7, #8]
  reg_value &= ~((uint32_t)(SCB_AIRCR_VECTKEY_Msk | SCB_AIRCR_PRIGROUP_Msk)); /* clear bits to change               */
 8000ae6:	68ba      	ldr	r2, [r7, #8]
 8000ae8:	f64f 03ff 	movw	r3, #63743	; 0xf8ff
 8000aec:	4013      	ands	r3, r2
 8000aee:	60bb      	str	r3, [r7, #8]
  reg_value  =  (reg_value                                   |
                ((uint32_t)0x5FAUL << SCB_AIRCR_VECTKEY_Pos) |
                (PriorityGroupTmp << SCB_AIRCR_PRIGROUP_Pos)  );              /* Insert write key and priority group */
 8000af0:	68fb      	ldr	r3, [r7, #12]
 8000af2:	021a      	lsls	r2, r3, #8
                ((uint32_t)0x5FAUL << SCB_AIRCR_VECTKEY_Pos) |
 8000af4:	68bb      	ldr	r3, [r7, #8]
 8000af6:	4313      	orrs	r3, r2
  reg_value  =  (reg_value                                   |
 8000af8:	f043 63bf 	orr.w	r3, r3, #100139008	; 0x5f80000
 8000afc:	f443 3300 	orr.w	r3, r3, #131072	; 0x20000
 8000b00:	60bb      	str	r3, [r7, #8]
  SCB->AIRCR =  reg_value;
 8000b02:	4a04      	ldr	r2, [pc, #16]	; (8000b14 <__NVIC_SetPriorityGrouping+0x44>)
 8000b04:	68bb      	ldr	r3, [r7, #8]
 8000b06:	60d3      	str	r3, [r2, #12]
}
 8000b08:	bf00      	nop
 8000b0a:	3714      	adds	r7, #20
 8000b0c:	46bd      	mov	sp, r7
 8000b0e:	f85d 7b04 	ldr.w	r7, [sp], #4
 8000b12:	4770      	bx	lr
 8000b14:	e000ed00 	.word	0xe000ed00

08000b18 <__NVIC_GetPriorityGrouping>:
  \brief   Get Priority Grouping
  \details Reads the priority grouping field from the NVIC Interrupt Controller.
  \return                Priority grouping field (SCB->AIRCR [10:8] PRIGROUP field).
 */
__STATIC_INLINE uint32_t __NVIC_GetPriorityGrouping(void)
{
 8000b18:	b480      	push	{r7}
 8000b1a:	af00      	add	r7, sp, #0
  return ((uint32_t)((SCB->AIRCR & SCB_AIRCR_PRIGROUP_Msk) >> SCB_AIRCR_PRIGROUP_Pos));
 8000b1c:	4b04      	ldr	r3, [pc, #16]	; (8000b30 <__NVIC_GetPriorityGrouping+0x18>)
 8000b1e:	68db      	ldr	r3, [r3, #12]
 8000b20:	0a1b      	lsrs	r3, r3, #8
 8000b22:	f003 0307 	and.w	r3, r3, #7
}
 8000b26:	4618      	mov	r0, r3
 8000b28:	46bd      	mov	sp, r7
 8000b2a:	f85d 7b04 	ldr.w	r7, [sp], #4
 8000b2e:	4770      	bx	lr
 8000b30:	e000ed00 	.word	0xe000ed00

08000b34 <__NVIC_SetPriority>:
  \param [in]      IRQn  Interrupt number.
  \param [in]  priority  Priority to set.
  \note    The priority cannot be set for every processor exception.
 */
__STATIC_INLINE void __NVIC_SetPriority(IRQn_Type IRQn, uint32_t priority)
{
 8000b34:	b480      	push	{r7}
 8000b36:	b083      	sub	sp, #12
 8000b38:	af00      	add	r7, sp, #0
 8000b3a:	4603      	mov	r3, r0
 8000b3c:	6039      	str	r1, [r7, #0]
 8000b3e:	71fb      	strb	r3, [r7, #7]
  if ((int32_t)(IRQn) >= 0)
 8000b40:	f997 3007 	ldrsb.w	r3, [r7, #7]
 8000b44:	2b00      	cmp	r3, #0
 8000b46:	db0a      	blt.n	8000b5e <__NVIC_SetPriority+0x2a>
  {
    NVIC->IP[((uint32_t)IRQn)]               = (uint8_t)((priority << (8U - __NVIC_PRIO_BITS)) & (uint32_t)0xFFUL);
 8000b48:	683b      	ldr	r3, [r7, #0]
 8000b4a:	b2da      	uxtb	r2, r3
 8000b4c:	490c      	ldr	r1, [pc, #48]	; (8000b80 <__NVIC_SetPriority+0x4c>)
 8000b4e:	f997 3007 	ldrsb.w	r3, [r7, #7]
 8000b52:	0112      	lsls	r2, r2, #4
 8000b54:	b2d2      	uxtb	r2, r2
 8000b56:	440b      	add	r3, r1
 8000b58:	f883 2300 	strb.w	r2, [r3, #768]	; 0x300
  }
  else
  {
    SCB->SHP[(((uint32_t)IRQn) & 0xFUL)-4UL] = (uint8_t)((priority << (8U - __NVIC_PRIO_BITS)) & (uint32_t)0xFFUL);
  }
}
 8000b5c:	e00a      	b.n	8000b74 <__NVIC_SetPriority+0x40>
    SCB->SHP[(((uint32_t)IRQn) & 0xFUL)-4UL] = (uint8_t)((priority << (8U - __NVIC_PRIO_BITS)) & (uint32_t)0xFFUL);
 8000b5e:	683b      	ldr	r3, [r7, #0]
 8000b60:	b2da      	uxtb	r2, r3
 8000b62:	4908      	ldr	r1, [pc, #32]	; (8000b84 <__NVIC_SetPriority+0x50>)
 8000b64:	79fb      	ldrb	r3, [r7, #7]
 8000b66:	f003 030f 	and.w	r3, r3, #15
 8000b6a:	3b04      	subs	r3, #4
 8000b6c:	0112      	lsls	r2, r2, #4
 8000b6e:	b2d2      	uxtb	r2, r2
 8000b70:	440b      	add	r3, r1
 8000b72:	761a      	strb	r2, [r3, #24]
}
 8000b74:	bf00      	nop
 8000b76:	370c      	adds	r7, #12
 8000b78:	46bd      	mov	sp, r7
 8000b7a:	f85d 7b04 	ldr.w	r7, [sp], #4
 8000b7e:	4770      	bx	lr
 8000b80:	e000e100 	.word	0xe000e100
 8000b84:	e000ed00 	.word	0xe000ed00

08000b88 <NVIC_EncodePriority>:
  \param [in]   PreemptPriority  Preemptive priority value (starting from 0).
  \param [in]       SubPriority  Subpriority value (starting from 0).
  \return                        Encoded priority. Value can be used in the function \ref NVIC_SetPriority().
 */
__STATIC_INLINE uint32_t NVIC_EncodePriority (uint32_t PriorityGroup, uint32_t PreemptPriority, uint32_t SubPriority)
{
 8000b88:	b480      	push	{r7}
 8000b8a:	b089      	sub	sp, #36	; 0x24
 8000b8c:	af00      	add	r7, sp, #0
 8000b8e:	60f8      	str	r0, [r7, #12]
 8000b90:	60b9      	str	r1, [r7, #8]
 8000b92:	607a      	str	r2, [r7, #4]
  uint32_t PriorityGroupTmp = (PriorityGroup & (uint32_t)0x07UL);   /* only values 0..7 are used          */
 8000b94:	68fb      	ldr	r3, [r7, #12]
 8000b96:	f003 0307 	and.w	r3, r3, #7
 8000b9a:	61fb      	str	r3, [r7, #28]
  uint32_t PreemptPriorityBits;
  uint32_t SubPriorityBits;

  PreemptPriorityBits = ((7UL - PriorityGroupTmp) > (uint32_t)(__NVIC_PRIO_BITS)) ? (uint32_t)(__NVIC_PRIO_BITS) : (uint32_t)(7UL - PriorityGroupTmp);
 8000b9c:	69fb      	ldr	r3, [r7, #28]
 8000b9e:	f1c3 0307 	rsb	r3, r3, #7
 8000ba2:	2b04      	cmp	r3, #4
 8000ba4:	bf28      	it	cs
 8000ba6:	2304      	movcs	r3, #4
 8000ba8:	61bb      	str	r3, [r7, #24]
  SubPriorityBits     = ((PriorityGroupTmp + (uint32_t)(__NVIC_PRIO_BITS)) < (uint32_t)7UL) ? (uint32_t)0UL : (uint32_t)((PriorityGroupTmp - 7UL) + (uint32_t)(__NVIC_PRIO_BITS));
 8000baa:	69fb      	ldr	r3, [r7, #28]
 8000bac:	3304      	adds	r3, #4
 8000bae:	2b06      	cmp	r3, #6
 8000bb0:	d902      	bls.n	8000bb8 <NVIC_EncodePriority+0x30>
 8000bb2:	69fb      	ldr	r3, [r7, #28]
 8000bb4:	3b03      	subs	r3, #3
 8000bb6:	e000      	b.n	8000bba <NVIC_EncodePriority+0x32>
 8000bb8:	2300      	movs	r3, #0
 8000bba:	617b      	str	r3, [r7, #20]

  return (
           ((PreemptPriority & (uint32_t)((1UL << (PreemptPriorityBits)) - 1UL)) << SubPriorityBits) |
 8000bbc:	f04f 32ff 	mov.w	r2, #4294967295
 8000bc0:	69bb      	ldr	r3, [r7, #24]
 8000bc2:	fa02 f303 	lsl.w	r3, r2, r3
 8000bc6:	43da      	mvns	r2, r3
 8000bc8:	68bb      	ldr	r3, [r7, #8]
 8000bca:	401a      	ands	r2, r3
 8000bcc:	697b      	ldr	r3, [r7, #20]
 8000bce:	409a      	lsls	r2, r3
           ((SubPriority     & (uint32_t)((1UL << (SubPriorityBits    )) - 1UL)))
 8000bd0:	f04f 31ff 	mov.w	r1, #4294967295
 8000bd4:	697b      	ldr	r3, [r7, #20]
 8000bd6:	fa01 f303 	lsl.w	r3, r1, r3
 8000bda:	43d9      	mvns	r1, r3
 8000bdc:	687b      	ldr	r3, [r7, #4]
 8000bde:	400b      	ands	r3, r1
           ((PreemptPriority & (uint32_t)((1UL << (PreemptPriorityBits)) - 1UL)) << SubPriorityBits) |
 8000be0:	4313      	orrs	r3, r2
         );
}
 8000be2:	4618      	mov	r0, r3
 8000be4:	3724      	adds	r7, #36	; 0x24
 8000be6:	46bd      	mov	sp, r7
 8000be8:	f85d 7b04 	ldr.w	r7, [sp], #4
 8000bec:	4770      	bx	lr
	...

08000bf0 <SysTick_Config>:
  \note    When the variable <b>__Vendor_SysTickConfig</b> is set to 1, then the
           function <b>SysTick_Config</b> is not included. In this case, the file <b><i>device</i>.h</b>
           must contain a vendor-specific implementation of this function.
 */
__STATIC_INLINE uint32_t SysTick_Config(uint32_t ticks)
{
 8000bf0:	b580      	push	{r7, lr}
 8000bf2:	b082      	sub	sp, #8
 8000bf4:	af00      	add	r7, sp, #0
 8000bf6:	6078      	str	r0, [r7, #4]
  if ((ticks - 1UL) > SysTick_LOAD_RELOAD_Msk)
 8000bf8:	687b      	ldr	r3, [r7, #4]
 8000bfa:	3b01      	subs	r3, #1
 8000bfc:	f1b3 7f80 	cmp.w	r3, #16777216	; 0x1000000
 8000c00:	d301      	bcc.n	8000c06 <SysTick_Config+0x16>
  {
    return (1UL);                                                   /* Reload value impossible */
 8000c02:	2301      	movs	r3, #1
 8000c04:	e00f      	b.n	8000c26 <SysTick_Config+0x36>
  }

  SysTick->LOAD  = (uint32_t)(ticks - 1UL);                         /* set reload register */
 8000c06:	4a0a      	ldr	r2, [pc, #40]	; (8000c30 <SysTick_Config+0x40>)
 8000c08:	687b      	ldr	r3, [r7, #4]
 8000c0a:	3b01      	subs	r3, #1
 8000c0c:	6053      	str	r3, [r2, #4]
  NVIC_SetPriority (SysTick_IRQn, (1UL << __NVIC_PRIO_BITS) - 1UL); /* set Priority for Systick Interrupt */
 8000c0e:	210f      	movs	r1, #15
 8000c10:	f04f 30ff 	mov.w	r0, #4294967295
 8000c14:	f7ff ff8e 	bl	8000b34 <__NVIC_SetPriority>
  SysTick->VAL   = 0UL;                                             /* Load the SysTick Counter Value */
 8000c18:	4b05      	ldr	r3, [pc, #20]	; (8000c30 <SysTick_Config+0x40>)
 8000c1a:	2200      	movs	r2, #0
 8000c1c:	609a      	str	r2, [r3, #8]
  SysTick->CTRL  = SysTick_CTRL_CLKSOURCE_Msk |
 8000c1e:	4b04      	ldr	r3, [pc, #16]	; (8000c30 <SysTick_Config+0x40>)
 8000c20:	2207      	movs	r2, #7
 8000c22:	601a      	str	r2, [r3, #0]
                   SysTick_CTRL_TICKINT_Msk   |
                   SysTick_CTRL_ENABLE_Msk;                         /* Enable SysTick IRQ and SysTick Timer */
  return (0UL);                                                     /* Function successful */
 8000c24:	2300      	movs	r3, #0
}
 8000c26:	4618      	mov	r0, r3
 8000c28:	3708      	adds	r7, #8
 8000c2a:	46bd      	mov	sp, r7
 8000c2c:	bd80      	pop	{r7, pc}
 8000c2e:	bf00      	nop
 8000c30:	e000e010 	.word	0xe000e010

08000c34 <HAL_NVIC_SetPriorityGrouping>:
  * @note   When the NVIC_PriorityGroup_0 is selected, IRQ preemption is no more possible. 
  *         The pending IRQ priority will be managed only by the subpriority. 
  * @retval None
  */
void HAL_NVIC_SetPriorityGrouping(uint32_t PriorityGroup)
{
 8000c34:	b580      	push	{r7, lr}
 8000c36:	b082      	sub	sp, #8
 8000c38:	af00      	add	r7, sp, #0
 8000c3a:	6078      	str	r0, [r7, #4]
  /* Check the parameters */
  assert_param(IS_NVIC_PRIORITY_GROUP(PriorityGroup));
  
  /* Set the PRIGROUP[10:8] bits according to the PriorityGroup parameter value */
  NVIC_SetPriorityGrouping(PriorityGroup);
 8000c3c:	6878      	ldr	r0, [r7, #4]
 8000c3e:	f7ff ff47 	bl	8000ad0 <__NVIC_SetPriorityGrouping>
}
 8000c42:	bf00      	nop
 8000c44:	3708      	adds	r7, #8
 8000c46:	46bd      	mov	sp, r7
 8000c48:	bd80      	pop	{r7, pc}

08000c4a <HAL_NVIC_SetPriority>:
  *         This parameter can be a value between 0 and 15
  *         A lower priority value indicates a higher priority.          
  * @retval None
  */
void HAL_NVIC_SetPriority(IRQn_Type IRQn, uint32_t PreemptPriority, uint32_t SubPriority)
{ 
 8000c4a:	b580      	push	{r7, lr}
 8000c4c:	b086      	sub	sp, #24
 8000c4e:	af00      	add	r7, sp, #0
 8000c50:	4603      	mov	r3, r0
 8000c52:	60b9      	str	r1, [r7, #8]
 8000c54:	607a      	str	r2, [r7, #4]
 8000c56:	73fb      	strb	r3, [r7, #15]
  uint32_t prioritygroup = 0x00U;
 8000c58:	2300      	movs	r3, #0
 8000c5a:	617b      	str	r3, [r7, #20]
  
  /* Check the parameters */
  assert_param(IS_NVIC_SUB_PRIORITY(SubPriority));
  assert_param(IS_NVIC_PREEMPTION_PRIORITY(PreemptPriority));
  
  prioritygroup = NVIC_GetPriorityGrouping();
 8000c5c:	f7ff ff5c 	bl	8000b18 <__NVIC_GetPriorityGrouping>
 8000c60:	6178      	str	r0, [r7, #20]
  
  NVIC_SetPriority(IRQn, NVIC_EncodePriority(prioritygroup, PreemptPriority, SubPriority));
 8000c62:	687a      	ldr	r2, [r7, #4]
 8000c64:	68b9      	ldr	r1, [r7, #8]
 8000c66:	6978      	ldr	r0, [r7, #20]
 8000c68:	f7ff ff8e 	bl	8000b88 <NVIC_EncodePriority>
 8000c6c:	4602      	mov	r2, r0
 8000c6e:	f997 300f 	ldrsb.w	r3, [r7, #15]
 8000c72:	4611      	mov	r1, r2
 8000c74:	4618      	mov	r0, r3
 8000c76:	f7ff ff5d 	bl	8000b34 <__NVIC_SetPriority>
}
 8000c7a:	bf00      	nop
 8000c7c:	3718      	adds	r7, #24
 8000c7e:	46bd      	mov	sp, r7
 8000c80:	bd80      	pop	{r7, pc}

08000c82 <HAL_SYSTICK_Config>:
  * @param  TicksNumb Specifies the ticks Number of ticks between two interrupts.
  * @retval status:  - 0  Function succeeded.
  *                  - 1  Function failed.
  */
uint32_t HAL_SYSTICK_Config(uint32_t TicksNumb)
{
 8000c82:	b580      	push	{r7, lr}
 8000c84:	b082      	sub	sp, #8
 8000c86:	af00      	add	r7, sp, #0
 8000c88:	6078      	str	r0, [r7, #4]
   return SysTick_Config(TicksNumb);
 8000c8a:	6878      	ldr	r0, [r7, #4]
 8000c8c:	f7ff ffb0 	bl	8000bf0 <SysTick_Config>
 8000c90:	4603      	mov	r3, r0
}
 8000c92:	4618      	mov	r0, r3
 8000c94:	3708      	adds	r7, #8
 8000c96:	46bd      	mov	sp, r7
 8000c98:	bd80      	pop	{r7, pc}
	...

08000c9c <HAL_GPIO_Init>:
  * @param  GPIO_Init pointer to a GPIO_InitTypeDef structure that contains
  *         the configuration information for the specified GPIO peripheral.
  * @retval None
  */
void HAL_GPIO_Init(GPIO_TypeDef  *GPIOx, GPIO_InitTypeDef *GPIO_Init)
{
 8000c9c:	b480      	push	{r7}
 8000c9e:	b089      	sub	sp, #36	; 0x24
 8000ca0:	af00      	add	r7, sp, #0
 8000ca2:	6078      	str	r0, [r7, #4]
 8000ca4:	6039      	str	r1, [r7, #0]
  uint32_t position;
  uint32_t ioposition = 0x00U;
 8000ca6:	2300      	movs	r3, #0
 8000ca8:	617b      	str	r3, [r7, #20]
  uint32_t iocurrent = 0x00U;
 8000caa:	2300      	movs	r3, #0
 8000cac:	613b      	str	r3, [r7, #16]
  uint32_t temp = 0x00U;
 8000cae:	2300      	movs	r3, #0
 8000cb0:	61bb      	str	r3, [r7, #24]
  assert_param(IS_GPIO_ALL_INSTANCE(GPIOx));
  assert_param(IS_GPIO_PIN(GPIO_Init->Pin));
  assert_param(IS_GPIO_MODE(GPIO_Init->Mode));

  /* Configure the port pins */
  for(position = 0U; position < GPIO_NUMBER; position++)
 8000cb2:	2300      	movs	r3, #0
 8000cb4:	61fb      	str	r3, [r7, #28]
 8000cb6:	e16b      	b.n	8000f90 <HAL_GPIO_Init+0x2f4>
  {
    /* Get the IO position */
    ioposition = 0x01U << position;
 8000cb8:	2201      	movs	r2, #1
 8000cba:	69fb      	ldr	r3, [r7, #28]
 8000cbc:	fa02 f303 	lsl.w	r3, r2, r3
 8000cc0:	617b      	str	r3, [r7, #20]
    /* Get the current IO position */
    iocurrent = (uint32_t)(GPIO_Init->Pin) & ioposition;
 8000cc2:	683b      	ldr	r3, [r7, #0]
 8000cc4:	681b      	ldr	r3, [r3, #0]
 8000cc6:	697a      	ldr	r2, [r7, #20]
 8000cc8:	4013      	ands	r3, r2
 8000cca:	613b      	str	r3, [r7, #16]

    if(iocurrent == ioposition)
 8000ccc:	693a      	ldr	r2, [r7, #16]
 8000cce:	697b      	ldr	r3, [r7, #20]
 8000cd0:	429a      	cmp	r2, r3
 8000cd2:	f040 815a 	bne.w	8000f8a <HAL_GPIO_Init+0x2ee>
    {
      /*--------------------- GPIO Mode Configuration ------------------------*/
      /* In case of Output or Alternate function mode selection */
      if(((GPIO_Init->Mode & GPIO_MODE) == MODE_OUTPUT) || \
 8000cd6:	683b      	ldr	r3, [r7, #0]
 8000cd8:	685b      	ldr	r3, [r3, #4]
 8000cda:	f003 0303 	and.w	r3, r3, #3
 8000cde:	2b01      	cmp	r3, #1
 8000ce0:	d005      	beq.n	8000cee <HAL_GPIO_Init+0x52>
          (GPIO_Init->Mode & GPIO_MODE) == MODE_AF)
 8000ce2:	683b      	ldr	r3, [r7, #0]
 8000ce4:	685b      	ldr	r3, [r3, #4]
 8000ce6:	f003 0303 	and.w	r3, r3, #3
      if(((GPIO_Init->Mode & GPIO_MODE) == MODE_OUTPUT) || \
 8000cea:	2b02      	cmp	r3, #2
 8000cec:	d130      	bne.n	8000d50 <HAL_GPIO_Init+0xb4>
      {
        /* Check the Speed parameter */
        assert_param(IS_GPIO_SPEED(GPIO_Init->Speed));
        /* Configure the IO Speed */
        temp = GPIOx->OSPEEDR; 
 8000cee:	687b      	ldr	r3, [r7, #4]
 8000cf0:	689b      	ldr	r3, [r3, #8]
 8000cf2:	61bb      	str	r3, [r7, #24]
        temp &= ~(GPIO_OSPEEDER_OSPEEDR0 << (position * 2U));
 8000cf4:	69fb      	ldr	r3, [r7, #28]
 8000cf6:	005b      	lsls	r3, r3, #1
 8000cf8:	2203      	movs	r2, #3
 8000cfa:	fa02 f303 	lsl.w	r3, r2, r3
 8000cfe:	43db      	mvns	r3, r3
 8000d00:	69ba      	ldr	r2, [r7, #24]
 8000d02:	4013      	ands	r3, r2
 8000d04:	61bb      	str	r3, [r7, #24]
        temp |= (GPIO_Init->Speed << (position * 2U));
 8000d06:	683b      	ldr	r3, [r7, #0]
 8000d08:	68da      	ldr	r2, [r3, #12]
 8000d0a:	69fb      	ldr	r3, [r7, #28]
 8000d0c:	005b      	lsls	r3, r3, #1
 8000d0e:	fa02 f303 	lsl.w	r3, r2, r3
 8000d12:	69ba      	ldr	r2, [r7, #24]
 8000d14:	4313      	orrs	r3, r2
 8000d16:	61bb      	str	r3, [r7, #24]
        GPIOx->OSPEEDR = temp;
 8000d18:	687b      	ldr	r3, [r7, #4]
 8000d1a:	69ba      	ldr	r2, [r7, #24]
 8000d1c:	609a      	str	r2, [r3, #8]

        /* Configure the IO Output Type */
        temp = GPIOx->OTYPER;
 8000d1e:	687b      	ldr	r3, [r7, #4]
 8000d20:	685b      	ldr	r3, [r3, #4]
 8000d22:	61bb      	str	r3, [r7, #24]
        temp &= ~(GPIO_OTYPER_OT_0 << position) ;
 8000d24:	2201      	movs	r2, #1
 8000d26:	69fb      	ldr	r3, [r7, #28]
 8000d28:	fa02 f303 	lsl.w	r3, r2, r3
 8000d2c:	43db      	mvns	r3, r3
 8000d2e:	69ba      	ldr	r2, [r7, #24]
 8000d30:	4013      	ands	r3, r2
 8000d32:	61bb      	str	r3, [r7, #24]
        temp |= (((GPIO_Init->Mode & OUTPUT_TYPE) >> OUTPUT_TYPE_Pos) << position);
 8000d34:	683b      	ldr	r3, [r7, #0]
 8000d36:	685b      	ldr	r3, [r3, #4]
 8000d38:	091b      	lsrs	r3, r3, #4
 8000d3a:	f003 0201 	and.w	r2, r3, #1
 8000d3e:	69fb      	ldr	r3, [r7, #28]
 8000d40:	fa02 f303 	lsl.w	r3, r2, r3
 8000d44:	69ba      	ldr	r2, [r7, #24]
 8000d46:	4313      	orrs	r3, r2
 8000d48:	61bb      	str	r3, [r7, #24]
        GPIOx->OTYPER = temp;
 8000d4a:	687b      	ldr	r3, [r7, #4]
 8000d4c:	69ba      	ldr	r2, [r7, #24]
 8000d4e:	605a      	str	r2, [r3, #4]
       }

      if((GPIO_Init->Mode & GPIO_MODE) != MODE_ANALOG)
 8000d50:	683b      	ldr	r3, [r7, #0]
 8000d52:	685b      	ldr	r3, [r3, #4]
 8000d54:	f003 0303 	and.w	r3, r3, #3
 8000d58:	2b03      	cmp	r3, #3
 8000d5a:	d017      	beq.n	8000d8c <HAL_GPIO_Init+0xf0>
      {
        /* Check the parameters */
        assert_param(IS_GPIO_PULL(GPIO_Init->Pull));
        
        /* Activate the Pull-up or Pull down resistor for the current IO */
        temp = GPIOx->PUPDR;
 8000d5c:	687b      	ldr	r3, [r7, #4]
 8000d5e:	68db      	ldr	r3, [r3, #12]
 8000d60:	61bb      	str	r3, [r7, #24]
        temp &= ~(GPIO_PUPDR_PUPDR0 << (position * 2U));
 8000d62:	69fb      	ldr	r3, [r7, #28]
 8000d64:	005b      	lsls	r3, r3, #1
 8000d66:	2203      	movs	r2, #3
 8000d68:	fa02 f303 	lsl.w	r3, r2, r3
 8000d6c:	43db      	mvns	r3, r3
 8000d6e:	69ba      	ldr	r2, [r7, #24]
 8000d70:	4013      	ands	r3, r2
 8000d72:	61bb      	str	r3, [r7, #24]
        temp |= ((GPIO_Init->Pull) << (position * 2U));
 8000d74:	683b      	ldr	r3, [r7, #0]
 8000d76:	689a      	ldr	r2, [r3, #8]
 8000d78:	69fb      	ldr	r3, [r7, #28]
 8000d7a:	005b      	lsls	r3, r3, #1
 8000d7c:	fa02 f303 	lsl.w	r3, r2, r3
 8000d80:	69ba      	ldr	r2, [r7, #24]
 8000d82:	4313      	orrs	r3, r2
 8000d84:	61bb      	str	r3, [r7, #24]
        GPIOx->PUPDR = temp;
 8000d86:	687b      	ldr	r3, [r7, #4]
 8000d88:	69ba      	ldr	r2, [r7, #24]
 8000d8a:	60da      	str	r2, [r3, #12]
      }

      /* In case of Alternate function mode selection */
      if((GPIO_Init->Mode & GPIO_MODE) == MODE_AF)
 8000d8c:	683b      	ldr	r3, [r7, #0]
 8000d8e:	685b      	ldr	r3, [r3, #4]
 8000d90:	f003 0303 	and.w	r3, r3, #3
 8000d94:	2b02      	cmp	r3, #2
 8000d96:	d123      	bne.n	8000de0 <HAL_GPIO_Init+0x144>
      {
        /* Check the Alternate function parameter */
        assert_param(IS_GPIO_AF(GPIO_Init->Alternate));
        /* Configure Alternate function mapped with the current IO */
        temp = GPIOx->AFR[position >> 3U];
 8000d98:	69fb      	ldr	r3, [r7, #28]
 8000d9a:	08da      	lsrs	r2, r3, #3
 8000d9c:	687b      	ldr	r3, [r7, #4]
 8000d9e:	3208      	adds	r2, #8
 8000da0:	f853 3022 	ldr.w	r3, [r3, r2, lsl #2]
 8000da4:	61bb      	str	r3, [r7, #24]
        temp &= ~(0xFU << ((uint32_t)(position & 0x07U) * 4U)) ;
 8000da6:	69fb      	ldr	r3, [r7, #28]
 8000da8:	f003 0307 	and.w	r3, r3, #7
 8000dac:	009b      	lsls	r3, r3, #2
 8000dae:	220f      	movs	r2, #15
 8000db0:	fa02 f303 	lsl.w	r3, r2, r3
 8000db4:	43db      	mvns	r3, r3
 8000db6:	69ba      	ldr	r2, [r7, #24]
 8000db8:	4013      	ands	r3, r2
 8000dba:	61bb      	str	r3, [r7, #24]
        temp |= ((uint32_t)(GPIO_Init->Alternate) << (((uint32_t)position & 0x07U) * 4U));
 8000dbc:	683b      	ldr	r3, [r7, #0]
 8000dbe:	691a      	ldr	r2, [r3, #16]
 8000dc0:	69fb      	ldr	r3, [r7, #28]
 8000dc2:	f003 0307 	and.w	r3, r3, #7
 8000dc6:	009b      	lsls	r3, r3, #2
 8000dc8:	fa02 f303 	lsl.w	r3, r2, r3
 8000dcc:	69ba      	ldr	r2, [r7, #24]
 8000dce:	4313      	orrs	r3, r2
 8000dd0:	61bb      	str	r3, [r7, #24]
        GPIOx->AFR[position >> 3U] = temp;
 8000dd2:	69fb      	ldr	r3, [r7, #28]
 8000dd4:	08da      	lsrs	r2, r3, #3
 8000dd6:	687b      	ldr	r3, [r7, #4]
 8000dd8:	3208      	adds	r2, #8
 8000dda:	69b9      	ldr	r1, [r7, #24]
 8000ddc:	f843 1022 	str.w	r1, [r3, r2, lsl #2]
      }

      /* Configure IO Direction mode (Input, Output, Alternate or Analog) */
      temp = GPIOx->MODER;
 8000de0:	687b      	ldr	r3, [r7, #4]
 8000de2:	681b      	ldr	r3, [r3, #0]
 8000de4:	61bb      	str	r3, [r7, #24]
      temp &= ~(GPIO_MODER_MODER0 << (position * 2U));
 8000de6:	69fb      	ldr	r3, [r7, #28]
 8000de8:	005b      	lsls	r3, r3, #1
 8000dea:	2203      	movs	r2, #3
 8000dec:	fa02 f303 	lsl.w	r3, r2, r3
 8000df0:	43db      	mvns	r3, r3
 8000df2:	69ba      	ldr	r2, [r7, #24]
 8000df4:	4013      	ands	r3, r2
 8000df6:	61bb      	str	r3, [r7, #24]
      temp |= ((GPIO_Init->Mode & GPIO_MODE) << (position * 2U));
 8000df8:	683b      	ldr	r3, [r7, #0]
 8000dfa:	685b      	ldr	r3, [r3, #4]
 8000dfc:	f003 0203 	and.w	r2, r3, #3
 8000e00:	69fb      	ldr	r3, [r7, #28]
 8000e02:	005b      	lsls	r3, r3, #1
 8000e04:	fa02 f303 	lsl.w	r3, r2, r3
 8000e08:	69ba      	ldr	r2, [r7, #24]
 8000e0a:	4313      	orrs	r3, r2
 8000e0c:	61bb      	str	r3, [r7, #24]
      GPIOx->MODER = temp;
 8000e0e:	687b      	ldr	r3, [r7, #4]
 8000e10:	69ba      	ldr	r2, [r7, #24]
 8000e12:	601a      	str	r2, [r3, #0]

      /*--------------------- EXTI Mode Configuration ------------------------*/
      /* Configure the External Interrupt or event for the current IO */
      if((GPIO_Init->Mode & EXTI_MODE) != 0x00U)
 8000e14:	683b      	ldr	r3, [r7, #0]
 8000e16:	685b      	ldr	r3, [r3, #4]
 8000e18:	f403 3340 	and.w	r3, r3, #196608	; 0x30000
 8000e1c:	2b00      	cmp	r3, #0
 8000e1e:	f000 80b4 	beq.w	8000f8a <HAL_GPIO_Init+0x2ee>
      {
        /* Enable SYSCFG Clock */
        __HAL_RCC_SYSCFG_CLK_ENABLE();
 8000e22:	2300      	movs	r3, #0
 8000e24:	60fb      	str	r3, [r7, #12]
 8000e26:	4b60      	ldr	r3, [pc, #384]	; (8000fa8 <HAL_GPIO_Init+0x30c>)
 8000e28:	6c5b      	ldr	r3, [r3, #68]	; 0x44
 8000e2a:	4a5f      	ldr	r2, [pc, #380]	; (8000fa8 <HAL_GPIO_Init+0x30c>)
 8000e2c:	f443 4380 	orr.w	r3, r3, #16384	; 0x4000
 8000e30:	6453      	str	r3, [r2, #68]	; 0x44
 8000e32:	4b5d      	ldr	r3, [pc, #372]	; (8000fa8 <HAL_GPIO_Init+0x30c>)
 8000e34:	6c5b      	ldr	r3, [r3, #68]	; 0x44
 8000e36:	f403 4380 	and.w	r3, r3, #16384	; 0x4000
 8000e3a:	60fb      	str	r3, [r7, #12]
 8000e3c:	68fb      	ldr	r3, [r7, #12]

        temp = SYSCFG->EXTICR[position >> 2U];
 8000e3e:	4a5b      	ldr	r2, [pc, #364]	; (8000fac <HAL_GPIO_Init+0x310>)
 8000e40:	69fb      	ldr	r3, [r7, #28]
 8000e42:	089b      	lsrs	r3, r3, #2
 8000e44:	3302      	adds	r3, #2
 8000e46:	f852 3023 	ldr.w	r3, [r2, r3, lsl #2]
 8000e4a:	61bb      	str	r3, [r7, #24]
        temp &= ~(0x0FU << (4U * (position & 0x03U)));
 8000e4c:	69fb      	ldr	r3, [r7, #28]
 8000e4e:	f003 0303 	and.w	r3, r3, #3
 8000e52:	009b      	lsls	r3, r3, #2
 8000e54:	220f      	movs	r2, #15
 8000e56:	fa02 f303 	lsl.w	r3, r2, r3
 8000e5a:	43db      	mvns	r3, r3
 8000e5c:	69ba      	ldr	r2, [r7, #24]
 8000e5e:	4013      	ands	r3, r2
 8000e60:	61bb      	str	r3, [r7, #24]
        temp |= ((uint32_t)(GPIO_GET_INDEX(GPIOx)) << (4U * (position & 0x03U)));
 8000e62:	687b      	ldr	r3, [r7, #4]
 8000e64:	4a52      	ldr	r2, [pc, #328]	; (8000fb0 <HAL_GPIO_Init+0x314>)
 8000e66:	4293      	cmp	r3, r2
 8000e68:	d02b      	beq.n	8000ec2 <HAL_GPIO_Init+0x226>
 8000e6a:	687b      	ldr	r3, [r7, #4]
 8000e6c:	4a51      	ldr	r2, [pc, #324]	; (8000fb4 <HAL_GPIO_Init+0x318>)
 8000e6e:	4293      	cmp	r3, r2
 8000e70:	d025      	beq.n	8000ebe <HAL_GPIO_Init+0x222>
 8000e72:	687b      	ldr	r3, [r7, #4]
 8000e74:	4a50      	ldr	r2, [pc, #320]	; (8000fb8 <HAL_GPIO_Init+0x31c>)
 8000e76:	4293      	cmp	r3, r2
 8000e78:	d01f      	beq.n	8000eba <HAL_GPIO_Init+0x21e>
 8000e7a:	687b      	ldr	r3, [r7, #4]
 8000e7c:	4a4f      	ldr	r2, [pc, #316]	; (8000fbc <HAL_GPIO_Init+0x320>)
 8000e7e:	4293      	cmp	r3, r2
 8000e80:	d019      	beq.n	8000eb6 <HAL_GPIO_Init+0x21a>
 8000e82:	687b      	ldr	r3, [r7, #4]
 8000e84:	4a4e      	ldr	r2, [pc, #312]	; (8000fc0 <HAL_GPIO_Init+0x324>)
 8000e86:	4293      	cmp	r3, r2
 8000e88:	d013      	beq.n	8000eb2 <HAL_GPIO_Init+0x216>
 8000e8a:	687b      	ldr	r3, [r7, #4]
 8000e8c:	4a4d      	ldr	r2, [pc, #308]	; (8000fc4 <HAL_GPIO_Init+0x328>)
 8000e8e:	4293      	cmp	r3, r2
 8000e90:	d00d      	beq.n	8000eae <HAL_GPIO_Init+0x212>
 8000e92:	687b      	ldr	r3, [r7, #4]
 8000e94:	4a4c      	ldr	r2, [pc, #304]	; (8000fc8 <HAL_GPIO_Init+0x32c>)
 8000e96:	4293      	cmp	r3, r2
 8000e98:	d007      	beq.n	8000eaa <HAL_GPIO_Init+0x20e>
 8000e9a:	687b      	ldr	r3, [r7, #4]
 8000e9c:	4a4b      	ldr	r2, [pc, #300]	; (8000fcc <HAL_GPIO_Init+0x330>)
 8000e9e:	4293      	cmp	r3, r2
 8000ea0:	d101      	bne.n	8000ea6 <HAL_GPIO_Init+0x20a>
 8000ea2:	2307      	movs	r3, #7
 8000ea4:	e00e      	b.n	8000ec4 <HAL_GPIO_Init+0x228>
 8000ea6:	2308      	movs	r3, #8
 8000ea8:	e00c      	b.n	8000ec4 <HAL_GPIO_Init+0x228>
 8000eaa:	2306      	movs	r3, #6
 8000eac:	e00a      	b.n	8000ec4 <HAL_GPIO_Init+0x228>
 8000eae:	2305      	movs	r3, #5
 8000eb0:	e008      	b.n	8000ec4 <HAL_GPIO_Init+0x228>
 8000eb2:	2304      	movs	r3, #4
 8000eb4:	e006      	b.n	8000ec4 <HAL_GPIO_Init+0x228>
 8000eb6:	2303      	movs	r3, #3
 8000eb8:	e004      	b.n	8000ec4 <HAL_GPIO_Init+0x228>
 8000eba:	2302      	movs	r3, #2
 8000ebc:	e002      	b.n	8000ec4 <HAL_GPIO_Init+0x228>
 8000ebe:	2301      	movs	r3, #1
 8000ec0:	e000      	b.n	8000ec4 <HAL_GPIO_Init+0x228>
 8000ec2:	2300      	movs	r3, #0
 8000ec4:	69fa      	ldr	r2, [r7, #28]
 8000ec6:	f002 0203 	and.w	r2, r2, #3
 8000eca:	0092      	lsls	r2, r2, #2
 8000ecc:	4093      	lsls	r3, r2
 8000ece:	69ba      	ldr	r2, [r7, #24]
 8000ed0:	4313      	orrs	r3, r2
 8000ed2:	61bb      	str	r3, [r7, #24]
        SYSCFG->EXTICR[position >> 2U] = temp;
 8000ed4:	4935      	ldr	r1, [pc, #212]	; (8000fac <HAL_GPIO_Init+0x310>)
 8000ed6:	69fb      	ldr	r3, [r7, #28]
 8000ed8:	089b      	lsrs	r3, r3, #2
 8000eda:	3302      	adds	r3, #2
 8000edc:	69ba      	ldr	r2, [r7, #24]
 8000ede:	f841 2023 	str.w	r2, [r1, r3, lsl #2]

        /* Clear EXTI line configuration */
        temp = EXTI->IMR;
 8000ee2:	4b3b      	ldr	r3, [pc, #236]	; (8000fd0 <HAL_GPIO_Init+0x334>)
 8000ee4:	681b      	ldr	r3, [r3, #0]
 8000ee6:	61bb      	str	r3, [r7, #24]
        temp &= ~((uint32_t)iocurrent);
 8000ee8:	693b      	ldr	r3, [r7, #16]
 8000eea:	43db      	mvns	r3, r3
 8000eec:	69ba      	ldr	r2, [r7, #24]
 8000eee:	4013      	ands	r3, r2
 8000ef0:	61bb      	str	r3, [r7, #24]
        if((GPIO_Init->Mode & EXTI_IT) != 0x00U)
 8000ef2:	683b      	ldr	r3, [r7, #0]
 8000ef4:	685b      	ldr	r3, [r3, #4]
 8000ef6:	f403 3380 	and.w	r3, r3, #65536	; 0x10000
 8000efa:	2b00      	cmp	r3, #0
 8000efc:	d003      	beq.n	8000f06 <HAL_GPIO_Init+0x26a>
        {
          temp |= iocurrent;
 8000efe:	69ba      	ldr	r2, [r7, #24]
 8000f00:	693b      	ldr	r3, [r7, #16]
 8000f02:	4313      	orrs	r3, r2
 8000f04:	61bb      	str	r3, [r7, #24]
        }
        EXTI->IMR = temp;
 8000f06:	4a32      	ldr	r2, [pc, #200]	; (8000fd0 <HAL_GPIO_Init+0x334>)
 8000f08:	69bb      	ldr	r3, [r7, #24]
 8000f0a:	6013      	str	r3, [r2, #0]

        temp = EXTI->EMR;
 8000f0c:	4b30      	ldr	r3, [pc, #192]	; (8000fd0 <HAL_GPIO_Init+0x334>)
 8000f0e:	685b      	ldr	r3, [r3, #4]
 8000f10:	61bb      	str	r3, [r7, #24]
        temp &= ~((uint32_t)iocurrent);
 8000f12:	693b      	ldr	r3, [r7, #16]
 8000f14:	43db      	mvns	r3, r3
 8000f16:	69ba      	ldr	r2, [r7, #24]
 8000f18:	4013      	ands	r3, r2
 8000f1a:	61bb      	str	r3, [r7, #24]
        if((GPIO_Init->Mode & EXTI_EVT) != 0x00U)
 8000f1c:	683b      	ldr	r3, [r7, #0]
 8000f1e:	685b      	ldr	r3, [r3, #4]
 8000f20:	f403 3300 	and.w	r3, r3, #131072	; 0x20000
 8000f24:	2b00      	cmp	r3, #0
 8000f26:	d003      	beq.n	8000f30 <HAL_GPIO_Init+0x294>
        {
          temp |= iocurrent;
 8000f28:	69ba      	ldr	r2, [r7, #24]
 8000f2a:	693b      	ldr	r3, [r7, #16]
 8000f2c:	4313      	orrs	r3, r2
 8000f2e:	61bb      	str	r3, [r7, #24]
        }
        EXTI->EMR = temp;
 8000f30:	4a27      	ldr	r2, [pc, #156]	; (8000fd0 <HAL_GPIO_Init+0x334>)
 8000f32:	69bb      	ldr	r3, [r7, #24]
 8000f34:	6053      	str	r3, [r2, #4]

        /* Clear Rising Falling edge configuration */
        temp = EXTI->RTSR;
 8000f36:	4b26      	ldr	r3, [pc, #152]	; (8000fd0 <HAL_GPIO_Init+0x334>)
 8000f38:	689b      	ldr	r3, [r3, #8]
 8000f3a:	61bb      	str	r3, [r7, #24]
        temp &= ~((uint32_t)iocurrent);
 8000f3c:	693b      	ldr	r3, [r7, #16]
 8000f3e:	43db      	mvns	r3, r3
 8000f40:	69ba      	ldr	r2, [r7, #24]
 8000f42:	4013      	ands	r3, r2
 8000f44:	61bb      	str	r3, [r7, #24]
        if((GPIO_Init->Mode & TRIGGER_RISING) != 0x00U)
 8000f46:	683b      	ldr	r3, [r7, #0]
 8000f48:	685b      	ldr	r3, [r3, #4]
 8000f4a:	f403 1380 	and.w	r3, r3, #1048576	; 0x100000
 8000f4e:	2b00      	cmp	r3, #0
 8000f50:	d003      	beq.n	8000f5a <HAL_GPIO_Init+0x2be>
        {
          temp |= iocurrent;
 8000f52:	69ba      	ldr	r2, [r7, #24]
 8000f54:	693b      	ldr	r3, [r7, #16]
 8000f56:	4313      	orrs	r3, r2
 8000f58:	61bb      	str	r3, [r7, #24]
        }
        EXTI->RTSR = temp;
 8000f5a:	4a1d      	ldr	r2, [pc, #116]	; (8000fd0 <HAL_GPIO_Init+0x334>)
 8000f5c:	69bb      	ldr	r3, [r7, #24]
 8000f5e:	6093      	str	r3, [r2, #8]

        temp = EXTI->FTSR;
 8000f60:	4b1b      	ldr	r3, [pc, #108]	; (8000fd0 <HAL_GPIO_Init+0x334>)
 8000f62:	68db      	ldr	r3, [r3, #12]
 8000f64:	61bb      	str	r3, [r7, #24]
        temp &= ~((uint32_t)iocurrent);
 8000f66:	693b      	ldr	r3, [r7, #16]
 8000f68:	43db      	mvns	r3, r3
 8000f6a:	69ba      	ldr	r2, [r7, #24]
 8000f6c:	4013      	ands	r3, r2
 8000f6e:	61bb      	str	r3, [r7, #24]
        if((GPIO_Init->Mode & TRIGGER_FALLING) != 0x00U)
 8000f70:	683b      	ldr	r3, [r7, #0]
 8000f72:	685b      	ldr	r3, [r3, #4]
 8000f74:	f403 1300 	and.w	r3, r3, #2097152	; 0x200000
 8000f78:	2b00      	cmp	r3, #0
 8000f7a:	d003      	beq.n	8000f84 <HAL_GPIO_Init+0x2e8>
        {
          temp |= iocurrent;
 8000f7c:	69ba      	ldr	r2, [r7, #24]
 8000f7e:	693b      	ldr	r3, [r7, #16]
 8000f80:	4313      	orrs	r3, r2
 8000f82:	61bb      	str	r3, [r7, #24]
        }
        EXTI->FTSR = temp;
 8000f84:	4a12      	ldr	r2, [pc, #72]	; (8000fd0 <HAL_GPIO_Init+0x334>)
 8000f86:	69bb      	ldr	r3, [r7, #24]
 8000f88:	60d3      	str	r3, [r2, #12]
  for(position = 0U; position < GPIO_NUMBER; position++)
 8000f8a:	69fb      	ldr	r3, [r7, #28]
 8000f8c:	3301      	adds	r3, #1
 8000f8e:	61fb      	str	r3, [r7, #28]
 8000f90:	69fb      	ldr	r3, [r7, #28]
 8000f92:	2b0f      	cmp	r3, #15
 8000f94:	f67f ae90 	bls.w	8000cb8 <HAL_GPIO_Init+0x1c>
      }
    }
  }
}
 8000f98:	bf00      	nop
 8000f9a:	bf00      	nop
 8000f9c:	3724      	adds	r7, #36	; 0x24
 8000f9e:	46bd      	mov	sp, r7
 8000fa0:	f85d 7b04 	ldr.w	r7, [sp], #4
 8000fa4:	4770      	bx	lr
 8000fa6:	bf00      	nop
 8000fa8:	40023800 	.word	0x40023800
 8000fac:	40013800 	.word	0x40013800
 8000fb0:	40020000 	.word	0x40020000
 8000fb4:	40020400 	.word	0x40020400
 8000fb8:	40020800 	.word	0x40020800
 8000fbc:	40020c00 	.word	0x40020c00
 8000fc0:	40021000 	.word	0x40021000
 8000fc4:	40021400 	.word	0x40021400
 8000fc8:	40021800 	.word	0x40021800
 8000fcc:	40021c00 	.word	0x40021c00
 8000fd0:	40013c00 	.word	0x40013c00

08000fd4 <HAL_GPIO_WritePin>:
  *            @arg GPIO_PIN_RESET: to clear the port pin
  *            @arg GPIO_PIN_SET: to set the port pin
  * @retval None
  */
void HAL_GPIO_WritePin(GPIO_TypeDef* GPIOx, uint16_t GPIO_Pin, GPIO_PinState PinState)
{
 8000fd4:	b480      	push	{r7}
 8000fd6:	b083      	sub	sp, #12
 8000fd8:	af00      	add	r7, sp, #0
 8000fda:	6078      	str	r0, [r7, #4]
 8000fdc:	460b      	mov	r3, r1
 8000fde:	807b      	strh	r3, [r7, #2]
 8000fe0:	4613      	mov	r3, r2
 8000fe2:	707b      	strb	r3, [r7, #1]
  /* Check the parameters */
  assert_param(IS_GPIO_PIN(GPIO_Pin));
  assert_param(IS_GPIO_PIN_ACTION(PinState));

  if(PinState != GPIO_PIN_RESET)
 8000fe4:	787b      	ldrb	r3, [r7, #1]
 8000fe6:	2b00      	cmp	r3, #0
 8000fe8:	d003      	beq.n	8000ff2 <HAL_GPIO_WritePin+0x1e>
  {
    GPIOx->BSRR = GPIO_Pin;
 8000fea:	887a      	ldrh	r2, [r7, #2]
 8000fec:	687b      	ldr	r3, [r7, #4]
 8000fee:	619a      	str	r2, [r3, #24]
  }
  else
  {
    GPIOx->BSRR = (uint32_t)GPIO_Pin << 16U;
  }
}
 8000ff0:	e003      	b.n	8000ffa <HAL_GPIO_WritePin+0x26>
    GPIOx->BSRR = (uint32_t)GPIO_Pin << 16U;
 8000ff2:	887b      	ldrh	r3, [r7, #2]
 8000ff4:	041a      	lsls	r2, r3, #16
 8000ff6:	687b      	ldr	r3, [r7, #4]
 8000ff8:	619a      	str	r2, [r3, #24]
}
 8000ffa:	bf00      	nop
 8000ffc:	370c      	adds	r7, #12
 8000ffe:	46bd      	mov	sp, r7
 8001000:	f85d 7b04 	ldr.w	r7, [sp], #4
 8001004:	4770      	bx	lr
	...

08001008 <HAL_RCC_OscConfig>:
  *         supported by this API. User should request a transition to HSE Off
  *         first and then HSE On or HSE Bypass.
  * @retval HAL status
  */
__weak HAL_StatusTypeDef HAL_RCC_OscConfig(RCC_OscInitTypeDef  *RCC_OscInitStruct)
{
 8001008:	b580      	push	{r7, lr}
 800100a:	b086      	sub	sp, #24
 800100c:	af00      	add	r7, sp, #0
 800100e:	6078      	str	r0, [r7, #4]
  uint32_t tickstart, pll_config;

  /* Check Null pointer */
  if(RCC_OscInitStruct == NULL)
 8001010:	687b      	ldr	r3, [r7, #4]
 8001012:	2b00      	cmp	r3, #0
 8001014:	d101      	bne.n	800101a <HAL_RCC_OscConfig+0x12>
  {
    return HAL_ERROR;
 8001016:	2301      	movs	r3, #1
 8001018:	e264      	b.n	80014e4 <HAL_RCC_OscConfig+0x4dc>
  }

  /* Check the parameters */
  assert_param(IS_RCC_OSCILLATORTYPE(RCC_OscInitStruct->OscillatorType));
  /*------------------------------- HSE Configuration ------------------------*/
  if(((RCC_OscInitStruct->OscillatorType) & RCC_OSCILLATORTYPE_HSE) == RCC_OSCILLATORTYPE_HSE)
 800101a:	687b      	ldr	r3, [r7, #4]
 800101c:	681b      	ldr	r3, [r3, #0]
 800101e:	f003 0301 	and.w	r3, r3, #1
 8001022:	2b00      	cmp	r3, #0
 8001024:	d075      	beq.n	8001112 <HAL_RCC_OscConfig+0x10a>
  {
    /* Check the parameters */
    assert_param(IS_RCC_HSE(RCC_OscInitStruct->HSEState));
    /* When the HSE is used as system clock or clock source for PLL in these cases HSE will not disabled */
    if((__HAL_RCC_GET_SYSCLK_SOURCE() == RCC_CFGR_SWS_HSE) ||\
 8001026:	4ba3      	ldr	r3, [pc, #652]	; (80012b4 <HAL_RCC_OscConfig+0x2ac>)
 8001028:	689b      	ldr	r3, [r3, #8]
 800102a:	f003 030c 	and.w	r3, r3, #12
 800102e:	2b04      	cmp	r3, #4
 8001030:	d00c      	beq.n	800104c <HAL_RCC_OscConfig+0x44>
      ((__HAL_RCC_GET_SYSCLK_SOURCE() == RCC_CFGR_SWS_PLL) && ((RCC->PLLCFGR & RCC_PLLCFGR_PLLSRC) == RCC_PLLCFGR_PLLSRC_HSE)))
 8001032:	4ba0      	ldr	r3, [pc, #640]	; (80012b4 <HAL_RCC_OscConfig+0x2ac>)
 8001034:	689b      	ldr	r3, [r3, #8]
 8001036:	f003 030c 	and.w	r3, r3, #12
    if((__HAL_RCC_GET_SYSCLK_SOURCE() == RCC_CFGR_SWS_HSE) ||\
 800103a:	2b08      	cmp	r3, #8
 800103c:	d112      	bne.n	8001064 <HAL_RCC_OscConfig+0x5c>
      ((__HAL_RCC_GET_SYSCLK_SOURCE() == RCC_CFGR_SWS_PLL) && ((RCC->PLLCFGR & RCC_PLLCFGR_PLLSRC) == RCC_PLLCFGR_PLLSRC_HSE)))
 800103e:	4b9d      	ldr	r3, [pc, #628]	; (80012b4 <HAL_RCC_OscConfig+0x2ac>)
 8001040:	685b      	ldr	r3, [r3, #4]
 8001042:	f403 0380 	and.w	r3, r3, #4194304	; 0x400000
 8001046:	f5b3 0f80 	cmp.w	r3, #4194304	; 0x400000
 800104a:	d10b      	bne.n	8001064 <HAL_RCC_OscConfig+0x5c>
    {
      if((__HAL_RCC_GET_FLAG(RCC_FLAG_HSERDY) != RESET) && (RCC_OscInitStruct->HSEState == RCC_HSE_OFF))
 800104c:	4b99      	ldr	r3, [pc, #612]	; (80012b4 <HAL_RCC_OscConfig+0x2ac>)
 800104e:	681b      	ldr	r3, [r3, #0]
 8001050:	f403 3300 	and.w	r3, r3, #131072	; 0x20000
 8001054:	2b00      	cmp	r3, #0
 8001056:	d05b      	beq.n	8001110 <HAL_RCC_OscConfig+0x108>
 8001058:	687b      	ldr	r3, [r7, #4]
 800105a:	685b      	ldr	r3, [r3, #4]
 800105c:	2b00      	cmp	r3, #0
 800105e:	d157      	bne.n	8001110 <HAL_RCC_OscConfig+0x108>
      {
        return HAL_ERROR;
 8001060:	2301      	movs	r3, #1
 8001062:	e23f      	b.n	80014e4 <HAL_RCC_OscConfig+0x4dc>
      }
    }
    else
    {
      /* Set the new HSE configuration ---------------------------------------*/
      __HAL_RCC_HSE_CONFIG(RCC_OscInitStruct->HSEState);
 8001064:	687b      	ldr	r3, [r7, #4]
 8001066:	685b      	ldr	r3, [r3, #4]
 8001068:	f5b3 3f80 	cmp.w	r3, #65536	; 0x10000
 800106c:	d106      	bne.n	800107c <HAL_RCC_OscConfig+0x74>
 800106e:	4b91      	ldr	r3, [pc, #580]	; (80012b4 <HAL_RCC_OscConfig+0x2ac>)
 8001070:	681b      	ldr	r3, [r3, #0]
 8001072:	4a90      	ldr	r2, [pc, #576]	; (80012b4 <HAL_RCC_OscConfig+0x2ac>)
 8001074:	f443 3380 	orr.w	r3, r3, #65536	; 0x10000
 8001078:	6013      	str	r3, [r2, #0]
 800107a:	e01d      	b.n	80010b8 <HAL_RCC_OscConfig+0xb0>
 800107c:	687b      	ldr	r3, [r7, #4]
 800107e:	685b      	ldr	r3, [r3, #4]
 8001080:	f5b3 2fa0 	cmp.w	r3, #327680	; 0x50000
 8001084:	d10c      	bne.n	80010a0 <HAL_RCC_OscConfig+0x98>
 8001086:	4b8b      	ldr	r3, [pc, #556]	; (80012b4 <HAL_RCC_OscConfig+0x2ac>)
 8001088:	681b      	ldr	r3, [r3, #0]
 800108a:	4a8a      	ldr	r2, [pc, #552]	; (80012b4 <HAL_RCC_OscConfig+0x2ac>)
 800108c:	f443 2380 	orr.w	r3, r3, #262144	; 0x40000
 8001090:	6013      	str	r3, [r2, #0]
 8001092:	4b88      	ldr	r3, [pc, #544]	; (80012b4 <HAL_RCC_OscConfig+0x2ac>)
 8001094:	681b      	ldr	r3, [r3, #0]
 8001096:	4a87      	ldr	r2, [pc, #540]	; (80012b4 <HAL_RCC_OscConfig+0x2ac>)
 8001098:	f443 3380 	orr.w	r3, r3, #65536	; 0x10000
 800109c:	6013      	str	r3, [r2, #0]
 800109e:	e00b      	b.n	80010b8 <HAL_RCC_OscConfig+0xb0>
 80010a0:	4b84      	ldr	r3, [pc, #528]	; (80012b4 <HAL_RCC_OscConfig+0x2ac>)
 80010a2:	681b      	ldr	r3, [r3, #0]
 80010a4:	4a83      	ldr	r2, [pc, #524]	; (80012b4 <HAL_RCC_OscConfig+0x2ac>)
 80010a6:	f423 3380 	bic.w	r3, r3, #65536	; 0x10000
 80010aa:	6013      	str	r3, [r2, #0]
 80010ac:	4b81      	ldr	r3, [pc, #516]	; (80012b4 <HAL_RCC_OscConfig+0x2ac>)
 80010ae:	681b      	ldr	r3, [r3, #0]
 80010b0:	4a80      	ldr	r2, [pc, #512]	; (80012b4 <HAL_RCC_OscConfig+0x2ac>)
 80010b2:	f423 2380 	bic.w	r3, r3, #262144	; 0x40000
 80010b6:	6013      	str	r3, [r2, #0]

      /* Check the HSE State */
      if((RCC_OscInitStruct->HSEState) != RCC_HSE_OFF)
 80010b8:	687b      	ldr	r3, [r7, #4]
 80010ba:	685b      	ldr	r3, [r3, #4]
 80010bc:	2b00      	cmp	r3, #0
 80010be:	d013      	beq.n	80010e8 <HAL_RCC_OscConfig+0xe0>
      {
        /* Get Start Tick */
        tickstart = HAL_GetTick();
 80010c0:	f7ff fcd6 	bl	8000a70 <HAL_GetTick>
 80010c4:	6138      	str	r0, [r7, #16]

        /* Wait till HSE is ready */
        while(__HAL_RCC_GET_FLAG(RCC_FLAG_HSERDY) == RESET)
 80010c6:	e008      	b.n	80010da <HAL_RCC_OscConfig+0xd2>
        {
          if((HAL_GetTick() - tickstart ) > HSE_TIMEOUT_VALUE)
 80010c8:	f7ff fcd2 	bl	8000a70 <HAL_GetTick>
 80010cc:	4602      	mov	r2, r0
 80010ce:	693b      	ldr	r3, [r7, #16]
 80010d0:	1ad3      	subs	r3, r2, r3
 80010d2:	2b64      	cmp	r3, #100	; 0x64
 80010d4:	d901      	bls.n	80010da <HAL_RCC_OscConfig+0xd2>
          {
            return HAL_TIMEOUT;
 80010d6:	2303      	movs	r3, #3
 80010d8:	e204      	b.n	80014e4 <HAL_RCC_OscConfig+0x4dc>
        while(__HAL_RCC_GET_FLAG(RCC_FLAG_HSERDY) == RESET)
 80010da:	4b76      	ldr	r3, [pc, #472]	; (80012b4 <HAL_RCC_OscConfig+0x2ac>)
 80010dc:	681b      	ldr	r3, [r3, #0]
 80010de:	f403 3300 	and.w	r3, r3, #131072	; 0x20000
 80010e2:	2b00      	cmp	r3, #0
 80010e4:	d0f0      	beq.n	80010c8 <HAL_RCC_OscConfig+0xc0>
 80010e6:	e014      	b.n	8001112 <HAL_RCC_OscConfig+0x10a>
        }
      }
      else
      {
        /* Get Start Tick */
        tickstart = HAL_GetTick();
 80010e8:	f7ff fcc2 	bl	8000a70 <HAL_GetTick>
 80010ec:	6138      	str	r0, [r7, #16]

        /* Wait till HSE is bypassed or disabled */
        while(__HAL_RCC_GET_FLAG(RCC_FLAG_HSERDY) != RESET)
 80010ee:	e008      	b.n	8001102 <HAL_RCC_OscConfig+0xfa>
        {
          if((HAL_GetTick() - tickstart ) > HSE_TIMEOUT_VALUE)
 80010f0:	f7ff fcbe 	bl	8000a70 <HAL_GetTick>
 80010f4:	4602      	mov	r2, r0
 80010f6:	693b      	ldr	r3, [r7, #16]
 80010f8:	1ad3      	subs	r3, r2, r3
 80010fa:	2b64      	cmp	r3, #100	; 0x64
 80010fc:	d901      	bls.n	8001102 <HAL_RCC_OscConfig+0xfa>
          {
            return HAL_TIMEOUT;
 80010fe:	2303      	movs	r3, #3
 8001100:	e1f0      	b.n	80014e4 <HAL_RCC_OscConfig+0x4dc>
        while(__HAL_RCC_GET_FLAG(RCC_FLAG_HSERDY) != RESET)
 8001102:	4b6c      	ldr	r3, [pc, #432]	; (80012b4 <HAL_RCC_OscConfig+0x2ac>)
 8001104:	681b      	ldr	r3, [r3, #0]
 8001106:	f403 3300 	and.w	r3, r3, #131072	; 0x20000
 800110a:	2b00      	cmp	r3, #0
 800110c:	d1f0      	bne.n	80010f0 <HAL_RCC_OscConfig+0xe8>
 800110e:	e000      	b.n	8001112 <HAL_RCC_OscConfig+0x10a>
      if((__HAL_RCC_GET_FLAG(RCC_FLAG_HSERDY) != RESET) && (RCC_OscInitStruct->HSEState == RCC_HSE_OFF))
 8001110:	bf00      	nop
        }
      }
    }
  }
  /*----------------------------- HSI Configuration --------------------------*/
  if(((RCC_OscInitStruct->OscillatorType) & RCC_OSCILLATORTYPE_HSI) == RCC_OSCILLATORTYPE_HSI)
 8001112:	687b      	ldr	r3, [r7, #4]
 8001114:	681b      	ldr	r3, [r3, #0]
 8001116:	f003 0302 	and.w	r3, r3, #2
 800111a:	2b00      	cmp	r3, #0
 800111c:	d063      	beq.n	80011e6 <HAL_RCC_OscConfig+0x1de>
    /* Check the parameters */
    assert_param(IS_RCC_HSI(RCC_OscInitStruct->HSIState));
    assert_param(IS_RCC_CALIBRATION_VALUE(RCC_OscInitStruct->HSICalibrationValue));

    /* Check if HSI is used as system clock or as PLL source when PLL is selected as system clock */
    if((__HAL_RCC_GET_SYSCLK_SOURCE() == RCC_CFGR_SWS_HSI) ||\
 800111e:	4b65      	ldr	r3, [pc, #404]	; (80012b4 <HAL_RCC_OscConfig+0x2ac>)
 8001120:	689b      	ldr	r3, [r3, #8]
 8001122:	f003 030c 	and.w	r3, r3, #12
 8001126:	2b00      	cmp	r3, #0
 8001128:	d00b      	beq.n	8001142 <HAL_RCC_OscConfig+0x13a>
      ((__HAL_RCC_GET_SYSCLK_SOURCE() == RCC_CFGR_SWS_PLL) && ((RCC->PLLCFGR & RCC_PLLCFGR_PLLSRC) == RCC_PLLCFGR_PLLSRC_HSI)))
 800112a:	4b62      	ldr	r3, [pc, #392]	; (80012b4 <HAL_RCC_OscConfig+0x2ac>)
 800112c:	689b      	ldr	r3, [r3, #8]
 800112e:	f003 030c 	and.w	r3, r3, #12
    if((__HAL_RCC_GET_SYSCLK_SOURCE() == RCC_CFGR_SWS_HSI) ||\
 8001132:	2b08      	cmp	r3, #8
 8001134:	d11c      	bne.n	8001170 <HAL_RCC_OscConfig+0x168>
      ((__HAL_RCC_GET_SYSCLK_SOURCE() == RCC_CFGR_SWS_PLL) && ((RCC->PLLCFGR & RCC_PLLCFGR_PLLSRC) == RCC_PLLCFGR_PLLSRC_HSI)))
 8001136:	4b5f      	ldr	r3, [pc, #380]	; (80012b4 <HAL_RCC_OscConfig+0x2ac>)
 8001138:	685b      	ldr	r3, [r3, #4]
 800113a:	f403 0380 	and.w	r3, r3, #4194304	; 0x400000
 800113e:	2b00      	cmp	r3, #0
 8001140:	d116      	bne.n	8001170 <HAL_RCC_OscConfig+0x168>
    {
      /* When HSI is used as system clock it will not disabled */
      if((__HAL_RCC_GET_FLAG(RCC_FLAG_HSIRDY) != RESET) && (RCC_OscInitStruct->HSIState != RCC_HSI_ON))
 8001142:	4b5c      	ldr	r3, [pc, #368]	; (80012b4 <HAL_RCC_OscConfig+0x2ac>)
 8001144:	681b      	ldr	r3, [r3, #0]
 8001146:	f003 0302 	and.w	r3, r3, #2
 800114a:	2b00      	cmp	r3, #0
 800114c:	d005      	beq.n	800115a <HAL_RCC_OscConfig+0x152>
 800114e:	687b      	ldr	r3, [r7, #4]
 8001150:	68db      	ldr	r3, [r3, #12]
 8001152:	2b01      	cmp	r3, #1
 8001154:	d001      	beq.n	800115a <HAL_RCC_OscConfig+0x152>
      {
        return HAL_ERROR;
 8001156:	2301      	movs	r3, #1
 8001158:	e1c4      	b.n	80014e4 <HAL_RCC_OscConfig+0x4dc>
      }
      /* Otherwise, just the calibration is allowed */
      else
      {
        /* Adjusts the Internal High Speed oscillator (HSI) calibration value.*/
        __HAL_RCC_HSI_CALIBRATIONVALUE_ADJUST(RCC_OscInitStruct->HSICalibrationValue);
 800115a:	4b56      	ldr	r3, [pc, #344]	; (80012b4 <HAL_RCC_OscConfig+0x2ac>)
 800115c:	681b      	ldr	r3, [r3, #0]
 800115e:	f023 02f8 	bic.w	r2, r3, #248	; 0xf8
 8001162:	687b      	ldr	r3, [r7, #4]
 8001164:	691b      	ldr	r3, [r3, #16]
 8001166:	00db      	lsls	r3, r3, #3
 8001168:	4952      	ldr	r1, [pc, #328]	; (80012b4 <HAL_RCC_OscConfig+0x2ac>)
 800116a:	4313      	orrs	r3, r2
 800116c:	600b      	str	r3, [r1, #0]
      if((__HAL_RCC_GET_FLAG(RCC_FLAG_HSIRDY) != RESET) && (RCC_OscInitStruct->HSIState != RCC_HSI_ON))
 800116e:	e03a      	b.n	80011e6 <HAL_RCC_OscConfig+0x1de>
      }
    }
    else
    {
      /* Check the HSI State */
      if((RCC_OscInitStruct->HSIState)!= RCC_HSI_OFF)
 8001170:	687b      	ldr	r3, [r7, #4]
 8001172:	68db      	ldr	r3, [r3, #12]
 8001174:	2b00      	cmp	r3, #0
 8001176:	d020      	beq.n	80011ba <HAL_RCC_OscConfig+0x1b2>
      {
        /* Enable the Internal High Speed oscillator (HSI). */
        __HAL_RCC_HSI_ENABLE();
 8001178:	4b4f      	ldr	r3, [pc, #316]	; (80012b8 <HAL_RCC_OscConfig+0x2b0>)
 800117a:	2201      	movs	r2, #1
 800117c:	601a      	str	r2, [r3, #0]

        /* Get Start Tick*/
        tickstart = HAL_GetTick();
 800117e:	f7ff fc77 	bl	8000a70 <HAL_GetTick>
 8001182:	6138      	str	r0, [r7, #16]

        /* Wait till HSI is ready */
        while(__HAL_RCC_GET_FLAG(RCC_FLAG_HSIRDY) == RESET)
 8001184:	e008      	b.n	8001198 <HAL_RCC_OscConfig+0x190>
        {
          if((HAL_GetTick() - tickstart ) > HSI_TIMEOUT_VALUE)
 8001186:	f7ff fc73 	bl	8000a70 <HAL_GetTick>
 800118a:	4602      	mov	r2, r0
 800118c:	693b      	ldr	r3, [r7, #16]
 800118e:	1ad3      	subs	r3, r2, r3
 8001190:	2b02      	cmp	r3, #2
 8001192:	d901      	bls.n	8001198 <HAL_RCC_OscConfig+0x190>
          {
            return HAL_TIMEOUT;
 8001194:	2303      	movs	r3, #3
 8001196:	e1a5      	b.n	80014e4 <HAL_RCC_OscConfig+0x4dc>
        while(__HAL_RCC_GET_FLAG(RCC_FLAG_HSIRDY) == RESET)
 8001198:	4b46      	ldr	r3, [pc, #280]	; (80012b4 <HAL_RCC_OscConfig+0x2ac>)
 800119a:	681b      	ldr	r3, [r3, #0]
 800119c:	f003 0302 	and.w	r3, r3, #2
 80011a0:	2b00      	cmp	r3, #0
 80011a2:	d0f0      	beq.n	8001186 <HAL_RCC_OscConfig+0x17e>
          }
        }

        /* Adjusts the Internal High Speed oscillator (HSI) calibration value. */
        __HAL_RCC_HSI_CALIBRATIONVALUE_ADJUST(RCC_OscInitStruct->HSICalibrationValue);
 80011a4:	4b43      	ldr	r3, [pc, #268]	; (80012b4 <HAL_RCC_OscConfig+0x2ac>)
 80011a6:	681b      	ldr	r3, [r3, #0]
 80011a8:	f023 02f8 	bic.w	r2, r3, #248	; 0xf8
 80011ac:	687b      	ldr	r3, [r7, #4]
 80011ae:	691b      	ldr	r3, [r3, #16]
 80011b0:	00db      	lsls	r3, r3, #3
 80011b2:	4940      	ldr	r1, [pc, #256]	; (80012b4 <HAL_RCC_OscConfig+0x2ac>)
 80011b4:	4313      	orrs	r3, r2
 80011b6:	600b      	str	r3, [r1, #0]
 80011b8:	e015      	b.n	80011e6 <HAL_RCC_OscConfig+0x1de>
      }
      else
      {
        /* Disable the Internal High Speed oscillator (HSI). */
        __HAL_RCC_HSI_DISABLE();
 80011ba:	4b3f      	ldr	r3, [pc, #252]	; (80012b8 <HAL_RCC_OscConfig+0x2b0>)
 80011bc:	2200      	movs	r2, #0
 80011be:	601a      	str	r2, [r3, #0]

        /* Get Start Tick*/
        tickstart = HAL_GetTick();
 80011c0:	f7ff fc56 	bl	8000a70 <HAL_GetTick>
 80011c4:	6138      	str	r0, [r7, #16]

        /* Wait till HSI is ready */
        while(__HAL_RCC_GET_FLAG(RCC_FLAG_HSIRDY) != RESET)
 80011c6:	e008      	b.n	80011da <HAL_RCC_OscConfig+0x1d2>
        {
          if((HAL_GetTick() - tickstart ) > HSI_TIMEOUT_VALUE)
 80011c8:	f7ff fc52 	bl	8000a70 <HAL_GetTick>
 80011cc:	4602      	mov	r2, r0
 80011ce:	693b      	ldr	r3, [r7, #16]
 80011d0:	1ad3      	subs	r3, r2, r3
 80011d2:	2b02      	cmp	r3, #2
 80011d4:	d901      	bls.n	80011da <HAL_RCC_OscConfig+0x1d2>
          {
            return HAL_TIMEOUT;
 80011d6:	2303      	movs	r3, #3
 80011d8:	e184      	b.n	80014e4 <HAL_RCC_OscConfig+0x4dc>
        while(__HAL_RCC_GET_FLAG(RCC_FLAG_HSIRDY) != RESET)
 80011da:	4b36      	ldr	r3, [pc, #216]	; (80012b4 <HAL_RCC_OscConfig+0x2ac>)
 80011dc:	681b      	ldr	r3, [r3, #0]
 80011de:	f003 0302 	and.w	r3, r3, #2
 80011e2:	2b00      	cmp	r3, #0
 80011e4:	d1f0      	bne.n	80011c8 <HAL_RCC_OscConfig+0x1c0>
        }
      }
    }
  }
  /*------------------------------ LSI Configuration -------------------------*/
  if(((RCC_OscInitStruct->OscillatorType) & RCC_OSCILLATORTYPE_LSI) == RCC_OSCILLATORTYPE_LSI)
 80011e6:	687b      	ldr	r3, [r7, #4]
 80011e8:	681b      	ldr	r3, [r3, #0]
 80011ea:	f003 0308 	and.w	r3, r3, #8
 80011ee:	2b00      	cmp	r3, #0
 80011f0:	d030      	beq.n	8001254 <HAL_RCC_OscConfig+0x24c>
  {
    /* Check the parameters */
    assert_param(IS_RCC_LSI(RCC_OscInitStruct->LSIState));

    /* Check the LSI State */
    if((RCC_OscInitStruct->LSIState)!= RCC_LSI_OFF)
 80011f2:	687b      	ldr	r3, [r7, #4]
 80011f4:	695b      	ldr	r3, [r3, #20]
 80011f6:	2b00      	cmp	r3, #0
 80011f8:	d016      	beq.n	8001228 <HAL_RCC_OscConfig+0x220>
    {
      /* Enable the Internal Low Speed oscillator (LSI). */
      __HAL_RCC_LSI_ENABLE();
 80011fa:	4b30      	ldr	r3, [pc, #192]	; (80012bc <HAL_RCC_OscConfig+0x2b4>)
 80011fc:	2201      	movs	r2, #1
 80011fe:	601a      	str	r2, [r3, #0]

      /* Get Start Tick*/
      tickstart = HAL_GetTick();
 8001200:	f7ff fc36 	bl	8000a70 <HAL_GetTick>
 8001204:	6138      	str	r0, [r7, #16]

      /* Wait till LSI is ready */
      while(__HAL_RCC_GET_FLAG(RCC_FLAG_LSIRDY) == RESET)
 8001206:	e008      	b.n	800121a <HAL_RCC_OscConfig+0x212>
      {
        if((HAL_GetTick() - tickstart ) > LSI_TIMEOUT_VALUE)
 8001208:	f7ff fc32 	bl	8000a70 <HAL_GetTick>
 800120c:	4602      	mov	r2, r0
 800120e:	693b      	ldr	r3, [r7, #16]
 8001210:	1ad3      	subs	r3, r2, r3
 8001212:	2b02      	cmp	r3, #2
 8001214:	d901      	bls.n	800121a <HAL_RCC_OscConfig+0x212>
        {
          return HAL_TIMEOUT;
 8001216:	2303      	movs	r3, #3
 8001218:	e164      	b.n	80014e4 <HAL_RCC_OscConfig+0x4dc>
      while(__HAL_RCC_GET_FLAG(RCC_FLAG_LSIRDY) == RESET)
 800121a:	4b26      	ldr	r3, [pc, #152]	; (80012b4 <HAL_RCC_OscConfig+0x2ac>)
 800121c:	6f5b      	ldr	r3, [r3, #116]	; 0x74
 800121e:	f003 0302 	and.w	r3, r3, #2
 8001222:	2b00      	cmp	r3, #0
 8001224:	d0f0      	beq.n	8001208 <HAL_RCC_OscConfig+0x200>
 8001226:	e015      	b.n	8001254 <HAL_RCC_OscConfig+0x24c>
      }
    }
    else
    {
      /* Disable the Internal Low Speed oscillator (LSI). */
      __HAL_RCC_LSI_DISABLE();
 8001228:	4b24      	ldr	r3, [pc, #144]	; (80012bc <HAL_RCC_OscConfig+0x2b4>)
 800122a:	2200      	movs	r2, #0
 800122c:	601a      	str	r2, [r3, #0]

      /* Get Start Tick */
      tickstart = HAL_GetTick();
 800122e:	f7ff fc1f 	bl	8000a70 <HAL_GetTick>
 8001232:	6138      	str	r0, [r7, #16]

      /* Wait till LSI is ready */
      while(__HAL_RCC_GET_FLAG(RCC_FLAG_LSIRDY) != RESET)
 8001234:	e008      	b.n	8001248 <HAL_RCC_OscConfig+0x240>
      {
        if((HAL_GetTick() - tickstart ) > LSI_TIMEOUT_VALUE)
 8001236:	f7ff fc1b 	bl	8000a70 <HAL_GetTick>
 800123a:	4602      	mov	r2, r0
 800123c:	693b      	ldr	r3, [r7, #16]
 800123e:	1ad3      	subs	r3, r2, r3
 8001240:	2b02      	cmp	r3, #2
 8001242:	d901      	bls.n	8001248 <HAL_RCC_OscConfig+0x240>
        {
          return HAL_TIMEOUT;
 8001244:	2303      	movs	r3, #3
 8001246:	e14d      	b.n	80014e4 <HAL_RCC_OscConfig+0x4dc>
      while(__HAL_RCC_GET_FLAG(RCC_FLAG_LSIRDY) != RESET)
 8001248:	4b1a      	ldr	r3, [pc, #104]	; (80012b4 <HAL_RCC_OscConfig+0x2ac>)
 800124a:	6f5b      	ldr	r3, [r3, #116]	; 0x74
 800124c:	f003 0302 	and.w	r3, r3, #2
 8001250:	2b00      	cmp	r3, #0
 8001252:	d1f0      	bne.n	8001236 <HAL_RCC_OscConfig+0x22e>
        }
      }
    }
  }
  /*------------------------------ LSE Configuration -------------------------*/
  if(((RCC_OscInitStruct->OscillatorType) & RCC_OSCILLATORTYPE_LSE) == RCC_OSCILLATORTYPE_LSE)
 8001254:	687b      	ldr	r3, [r7, #4]
 8001256:	681b      	ldr	r3, [r3, #0]
 8001258:	f003 0304 	and.w	r3, r3, #4
 800125c:	2b00      	cmp	r3, #0
 800125e:	f000 80a0 	beq.w	80013a2 <HAL_RCC_OscConfig+0x39a>
  {
    FlagStatus       pwrclkchanged = RESET;
 8001262:	2300      	movs	r3, #0
 8001264:	75fb      	strb	r3, [r7, #23]
    /* Check the parameters */
    assert_param(IS_RCC_LSE(RCC_OscInitStruct->LSEState));

    /* Update LSE configuration in Backup Domain control register    */
    /* Requires to enable write access to Backup Domain of necessary */
    if(__HAL_RCC_PWR_IS_CLK_DISABLED())
 8001266:	4b13      	ldr	r3, [pc, #76]	; (80012b4 <HAL_RCC_OscConfig+0x2ac>)
 8001268:	6c1b      	ldr	r3, [r3, #64]	; 0x40
 800126a:	f003 5380 	and.w	r3, r3, #268435456	; 0x10000000
 800126e:	2b00      	cmp	r3, #0
 8001270:	d10f      	bne.n	8001292 <HAL_RCC_OscConfig+0x28a>
    {
      __HAL_RCC_PWR_CLK_ENABLE();
 8001272:	2300      	movs	r3, #0
 8001274:	60bb      	str	r3, [r7, #8]
 8001276:	4b0f      	ldr	r3, [pc, #60]	; (80012b4 <HAL_RCC_OscConfig+0x2ac>)
 8001278:	6c1b      	ldr	r3, [r3, #64]	; 0x40
 800127a:	4a0e      	ldr	r2, [pc, #56]	; (80012b4 <HAL_RCC_OscConfig+0x2ac>)
 800127c:	f043 5380 	orr.w	r3, r3, #268435456	; 0x10000000
 8001280:	6413      	str	r3, [r2, #64]	; 0x40
 8001282:	4b0c      	ldr	r3, [pc, #48]	; (80012b4 <HAL_RCC_OscConfig+0x2ac>)
 8001284:	6c1b      	ldr	r3, [r3, #64]	; 0x40
 8001286:	f003 5380 	and.w	r3, r3, #268435456	; 0x10000000
 800128a:	60bb      	str	r3, [r7, #8]
 800128c:	68bb      	ldr	r3, [r7, #8]
      pwrclkchanged = SET;
 800128e:	2301      	movs	r3, #1
 8001290:	75fb      	strb	r3, [r7, #23]
    }

    if(HAL_IS_BIT_CLR(PWR->CR, PWR_CR_DBP))
 8001292:	4b0b      	ldr	r3, [pc, #44]	; (80012c0 <HAL_RCC_OscConfig+0x2b8>)
 8001294:	681b      	ldr	r3, [r3, #0]
 8001296:	f403 7380 	and.w	r3, r3, #256	; 0x100
 800129a:	2b00      	cmp	r3, #0
 800129c:	d121      	bne.n	80012e2 <HAL_RCC_OscConfig+0x2da>
    {
      /* Enable write access to Backup domain */
      SET_BIT(PWR->CR, PWR_CR_DBP);
 800129e:	4b08      	ldr	r3, [pc, #32]	; (80012c0 <HAL_RCC_OscConfig+0x2b8>)
 80012a0:	681b      	ldr	r3, [r3, #0]
 80012a2:	4a07      	ldr	r2, [pc, #28]	; (80012c0 <HAL_RCC_OscConfig+0x2b8>)
 80012a4:	f443 7380 	orr.w	r3, r3, #256	; 0x100
 80012a8:	6013      	str	r3, [r2, #0]

      /* Wait for Backup domain Write protection disable */
      tickstart = HAL_GetTick();
 80012aa:	f7ff fbe1 	bl	8000a70 <HAL_GetTick>
 80012ae:	6138      	str	r0, [r7, #16]

      while(HAL_IS_BIT_CLR(PWR->CR, PWR_CR_DBP))
 80012b0:	e011      	b.n	80012d6 <HAL_RCC_OscConfig+0x2ce>
 80012b2:	bf00      	nop
 80012b4:	40023800 	.word	0x40023800
 80012b8:	42470000 	.word	0x42470000
 80012bc:	42470e80 	.word	0x42470e80
 80012c0:	40007000 	.word	0x40007000
      {
        if((HAL_GetTick() - tickstart) > RCC_DBP_TIMEOUT_VALUE)
 80012c4:	f7ff fbd4 	bl	8000a70 <HAL_GetTick>
 80012c8:	4602      	mov	r2, r0
 80012ca:	693b      	ldr	r3, [r7, #16]
 80012cc:	1ad3      	subs	r3, r2, r3
 80012ce:	2b02      	cmp	r3, #2
 80012d0:	d901      	bls.n	80012d6 <HAL_RCC_OscConfig+0x2ce>
        {
          return HAL_TIMEOUT;
 80012d2:	2303      	movs	r3, #3
 80012d4:	e106      	b.n	80014e4 <HAL_RCC_OscConfig+0x4dc>
      while(HAL_IS_BIT_CLR(PWR->CR, PWR_CR_DBP))
 80012d6:	4b85      	ldr	r3, [pc, #532]	; (80014ec <HAL_RCC_OscConfig+0x4e4>)
 80012d8:	681b      	ldr	r3, [r3, #0]
 80012da:	f403 7380 	and.w	r3, r3, #256	; 0x100
 80012de:	2b00      	cmp	r3, #0
 80012e0:	d0f0      	beq.n	80012c4 <HAL_RCC_OscConfig+0x2bc>
        }
      }
    }

    /* Set the new LSE configuration -----------------------------------------*/
    __HAL_RCC_LSE_CONFIG(RCC_OscInitStruct->LSEState);
 80012e2:	687b      	ldr	r3, [r7, #4]
 80012e4:	689b      	ldr	r3, [r3, #8]
 80012e6:	2b01      	cmp	r3, #1
 80012e8:	d106      	bne.n	80012f8 <HAL_RCC_OscConfig+0x2f0>
 80012ea:	4b81      	ldr	r3, [pc, #516]	; (80014f0 <HAL_RCC_OscConfig+0x4e8>)
 80012ec:	6f1b      	ldr	r3, [r3, #112]	; 0x70
 80012ee:	4a80      	ldr	r2, [pc, #512]	; (80014f0 <HAL_RCC_OscConfig+0x4e8>)
 80012f0:	f043 0301 	orr.w	r3, r3, #1
 80012f4:	6713      	str	r3, [r2, #112]	; 0x70
 80012f6:	e01c      	b.n	8001332 <HAL_RCC_OscConfig+0x32a>
 80012f8:	687b      	ldr	r3, [r7, #4]
 80012fa:	689b      	ldr	r3, [r3, #8]
 80012fc:	2b05      	cmp	r3, #5
 80012fe:	d10c      	bne.n	800131a <HAL_RCC_OscConfig+0x312>
 8001300:	4b7b      	ldr	r3, [pc, #492]	; (80014f0 <HAL_RCC_OscConfig+0x4e8>)
 8001302:	6f1b      	ldr	r3, [r3, #112]	; 0x70
 8001304:	4a7a      	ldr	r2, [pc, #488]	; (80014f0 <HAL_RCC_OscConfig+0x4e8>)
 8001306:	f043 0304 	orr.w	r3, r3, #4
 800130a:	6713      	str	r3, [r2, #112]	; 0x70
 800130c:	4b78      	ldr	r3, [pc, #480]	; (80014f0 <HAL_RCC_OscConfig+0x4e8>)
 800130e:	6f1b      	ldr	r3, [r3, #112]	; 0x70
 8001310:	4a77      	ldr	r2, [pc, #476]	; (80014f0 <HAL_RCC_OscConfig+0x4e8>)
 8001312:	f043 0301 	orr.w	r3, r3, #1
 8001316:	6713      	str	r3, [r2, #112]	; 0x70
 8001318:	e00b      	b.n	8001332 <HAL_RCC_OscConfig+0x32a>
 800131a:	4b75      	ldr	r3, [pc, #468]	; (80014f0 <HAL_RCC_OscConfig+0x4e8>)
 800131c:	6f1b      	ldr	r3, [r3, #112]	; 0x70
 800131e:	4a74      	ldr	r2, [pc, #464]	; (80014f0 <HAL_RCC_OscConfig+0x4e8>)
 8001320:	f023 0301 	bic.w	r3, r3, #1
 8001324:	6713      	str	r3, [r2, #112]	; 0x70
 8001326:	4b72      	ldr	r3, [pc, #456]	; (80014f0 <HAL_RCC_OscConfig+0x4e8>)
 8001328:	6f1b      	ldr	r3, [r3, #112]	; 0x70
 800132a:	4a71      	ldr	r2, [pc, #452]	; (80014f0 <HAL_RCC_OscConfig+0x4e8>)
 800132c:	f023 0304 	bic.w	r3, r3, #4
 8001330:	6713      	str	r3, [r2, #112]	; 0x70
    /* Check the LSE State */
    if((RCC_OscInitStruct->LSEState) != RCC_LSE_OFF)
 8001332:	687b      	ldr	r3, [r7, #4]
 8001334:	689b      	ldr	r3, [r3, #8]
 8001336:	2b00      	cmp	r3, #0
 8001338:	d015      	beq.n	8001366 <HAL_RCC_OscConfig+0x35e>
    {
      /* Get Start Tick*/
      tickstart = HAL_GetTick();
 800133a:	f7ff fb99 	bl	8000a70 <HAL_GetTick>
 800133e:	6138      	str	r0, [r7, #16]

      /* Wait till LSE is ready */
      while(__HAL_RCC_GET_FLAG(RCC_FLAG_LSERDY) == RESET)
 8001340:	e00a      	b.n	8001358 <HAL_RCC_OscConfig+0x350>
      {
        if((HAL_GetTick() - tickstart ) > RCC_LSE_TIMEOUT_VALUE)
 8001342:	f7ff fb95 	bl	8000a70 <HAL_GetTick>
 8001346:	4602      	mov	r2, r0
 8001348:	693b      	ldr	r3, [r7, #16]
 800134a:	1ad3      	subs	r3, r2, r3
 800134c:	f241 3288 	movw	r2, #5000	; 0x1388
 8001350:	4293      	cmp	r3, r2
 8001352:	d901      	bls.n	8001358 <HAL_RCC_OscConfig+0x350>
        {
          return HAL_TIMEOUT;
 8001354:	2303      	movs	r3, #3
 8001356:	e0c5      	b.n	80014e4 <HAL_RCC_OscConfig+0x4dc>
      while(__HAL_RCC_GET_FLAG(RCC_FLAG_LSERDY) == RESET)
 8001358:	4b65      	ldr	r3, [pc, #404]	; (80014f0 <HAL_RCC_OscConfig+0x4e8>)
 800135a:	6f1b      	ldr	r3, [r3, #112]	; 0x70
 800135c:	f003 0302 	and.w	r3, r3, #2
 8001360:	2b00      	cmp	r3, #0
 8001362:	d0ee      	beq.n	8001342 <HAL_RCC_OscConfig+0x33a>
 8001364:	e014      	b.n	8001390 <HAL_RCC_OscConfig+0x388>
      }
    }
    else
    {
      /* Get Start Tick */
      tickstart = HAL_GetTick();
 8001366:	f7ff fb83 	bl	8000a70 <HAL_GetTick>
 800136a:	6138      	str	r0, [r7, #16]

      /* Wait till LSE is ready */
      while(__HAL_RCC_GET_FLAG(RCC_FLAG_LSERDY) != RESET)
 800136c:	e00a      	b.n	8001384 <HAL_RCC_OscConfig+0x37c>
      {
        if((HAL_GetTick() - tickstart ) > RCC_LSE_TIMEOUT_VALUE)
 800136e:	f7ff fb7f 	bl	8000a70 <HAL_GetTick>
 8001372:	4602      	mov	r2, r0
 8001374:	693b      	ldr	r3, [r7, #16]
 8001376:	1ad3      	subs	r3, r2, r3
 8001378:	f241 3288 	movw	r2, #5000	; 0x1388
 800137c:	4293      	cmp	r3, r2
 800137e:	d901      	bls.n	8001384 <HAL_RCC_OscConfig+0x37c>
        {
          return HAL_TIMEOUT;
 8001380:	2303      	movs	r3, #3
 8001382:	e0af      	b.n	80014e4 <HAL_RCC_OscConfig+0x4dc>
      while(__HAL_RCC_GET_FLAG(RCC_FLAG_LSERDY) != RESET)
 8001384:	4b5a      	ldr	r3, [pc, #360]	; (80014f0 <HAL_RCC_OscConfig+0x4e8>)
 8001386:	6f1b      	ldr	r3, [r3, #112]	; 0x70
 8001388:	f003 0302 	and.w	r3, r3, #2
 800138c:	2b00      	cmp	r3, #0
 800138e:	d1ee      	bne.n	800136e <HAL_RCC_OscConfig+0x366>
        }
      }
    }

    /* Restore clock configuration if changed */
    if(pwrclkchanged == SET)
 8001390:	7dfb      	ldrb	r3, [r7, #23]
 8001392:	2b01      	cmp	r3, #1
 8001394:	d105      	bne.n	80013a2 <HAL_RCC_OscConfig+0x39a>
    {
      __HAL_RCC_PWR_CLK_DISABLE();
 8001396:	4b56      	ldr	r3, [pc, #344]	; (80014f0 <HAL_RCC_OscConfig+0x4e8>)
 8001398:	6c1b      	ldr	r3, [r3, #64]	; 0x40
 800139a:	4a55      	ldr	r2, [pc, #340]	; (80014f0 <HAL_RCC_OscConfig+0x4e8>)
 800139c:	f023 5380 	bic.w	r3, r3, #268435456	; 0x10000000
 80013a0:	6413      	str	r3, [r2, #64]	; 0x40
    }
  }
  /*-------------------------------- PLL Configuration -----------------------*/
  /* Check the parameters */
  assert_param(IS_RCC_PLL(RCC_OscInitStruct->PLL.PLLState));
  if ((RCC_OscInitStruct->PLL.PLLState) != RCC_PLL_NONE)
 80013a2:	687b      	ldr	r3, [r7, #4]
 80013a4:	699b      	ldr	r3, [r3, #24]
 80013a6:	2b00      	cmp	r3, #0
 80013a8:	f000 809b 	beq.w	80014e2 <HAL_RCC_OscConfig+0x4da>
  {
    /* Check if the PLL is used as system clock or not */
    if(__HAL_RCC_GET_SYSCLK_SOURCE() != RCC_CFGR_SWS_PLL)
 80013ac:	4b50      	ldr	r3, [pc, #320]	; (80014f0 <HAL_RCC_OscConfig+0x4e8>)
 80013ae:	689b      	ldr	r3, [r3, #8]
 80013b0:	f003 030c 	and.w	r3, r3, #12
 80013b4:	2b08      	cmp	r3, #8
 80013b6:	d05c      	beq.n	8001472 <HAL_RCC_OscConfig+0x46a>
    {
      if((RCC_OscInitStruct->PLL.PLLState) == RCC_PLL_ON)
 80013b8:	687b      	ldr	r3, [r7, #4]
 80013ba:	699b      	ldr	r3, [r3, #24]
 80013bc:	2b02      	cmp	r3, #2
 80013be:	d141      	bne.n	8001444 <HAL_RCC_OscConfig+0x43c>
        assert_param(IS_RCC_PLLN_VALUE(RCC_OscInitStruct->PLL.PLLN));
        assert_param(IS_RCC_PLLP_VALUE(RCC_OscInitStruct->PLL.PLLP));
        assert_param(IS_RCC_PLLQ_VALUE(RCC_OscInitStruct->PLL.PLLQ));

        /* Disable the main PLL. */
        __HAL_RCC_PLL_DISABLE();
 80013c0:	4b4c      	ldr	r3, [pc, #304]	; (80014f4 <HAL_RCC_OscConfig+0x4ec>)
 80013c2:	2200      	movs	r2, #0
 80013c4:	601a      	str	r2, [r3, #0]

        /* Get Start Tick */
        tickstart = HAL_GetTick();
 80013c6:	f7ff fb53 	bl	8000a70 <HAL_GetTick>
 80013ca:	6138      	str	r0, [r7, #16]

        /* Wait till PLL is ready */
        while(__HAL_RCC_GET_FLAG(RCC_FLAG_PLLRDY) != RESET)
 80013cc:	e008      	b.n	80013e0 <HAL_RCC_OscConfig+0x3d8>
        {
          if((HAL_GetTick() - tickstart ) > PLL_TIMEOUT_VALUE)
 80013ce:	f7ff fb4f 	bl	8000a70 <HAL_GetTick>
 80013d2:	4602      	mov	r2, r0
 80013d4:	693b      	ldr	r3, [r7, #16]
 80013d6:	1ad3      	subs	r3, r2, r3
 80013d8:	2b02      	cmp	r3, #2
 80013da:	d901      	bls.n	80013e0 <HAL_RCC_OscConfig+0x3d8>
          {
            return HAL_TIMEOUT;
 80013dc:	2303      	movs	r3, #3
 80013de:	e081      	b.n	80014e4 <HAL_RCC_OscConfig+0x4dc>
        while(__HAL_RCC_GET_FLAG(RCC_FLAG_PLLRDY) != RESET)
 80013e0:	4b43      	ldr	r3, [pc, #268]	; (80014f0 <HAL_RCC_OscConfig+0x4e8>)
 80013e2:	681b      	ldr	r3, [r3, #0]
 80013e4:	f003 7300 	and.w	r3, r3, #33554432	; 0x2000000
 80013e8:	2b00      	cmp	r3, #0
 80013ea:	d1f0      	bne.n	80013ce <HAL_RCC_OscConfig+0x3c6>
          }
        }

        /* Configure the main PLL clock source, multiplication and division factors. */
        WRITE_REG(RCC->PLLCFGR, (RCC_OscInitStruct->PLL.PLLSource                                            | \
 80013ec:	687b      	ldr	r3, [r7, #4]
 80013ee:	69da      	ldr	r2, [r3, #28]
 80013f0:	687b      	ldr	r3, [r7, #4]
 80013f2:	6a1b      	ldr	r3, [r3, #32]
 80013f4:	431a      	orrs	r2, r3
 80013f6:	687b      	ldr	r3, [r7, #4]
 80013f8:	6a5b      	ldr	r3, [r3, #36]	; 0x24
 80013fa:	019b      	lsls	r3, r3, #6
 80013fc:	431a      	orrs	r2, r3
 80013fe:	687b      	ldr	r3, [r7, #4]
 8001400:	6a9b      	ldr	r3, [r3, #40]	; 0x28
 8001402:	085b      	lsrs	r3, r3, #1
 8001404:	3b01      	subs	r3, #1
 8001406:	041b      	lsls	r3, r3, #16
 8001408:	431a      	orrs	r2, r3
 800140a:	687b      	ldr	r3, [r7, #4]
 800140c:	6adb      	ldr	r3, [r3, #44]	; 0x2c
 800140e:	061b      	lsls	r3, r3, #24
 8001410:	4937      	ldr	r1, [pc, #220]	; (80014f0 <HAL_RCC_OscConfig+0x4e8>)
 8001412:	4313      	orrs	r3, r2
 8001414:	604b      	str	r3, [r1, #4]
                                 RCC_OscInitStruct->PLL.PLLM                                                 | \
                                 (RCC_OscInitStruct->PLL.PLLN << RCC_PLLCFGR_PLLN_Pos)             | \
                                 (((RCC_OscInitStruct->PLL.PLLP >> 1U) - 1U) << RCC_PLLCFGR_PLLP_Pos) | \
                                 (RCC_OscInitStruct->PLL.PLLQ << RCC_PLLCFGR_PLLQ_Pos)));
        /* Enable the main PLL. */
        __HAL_RCC_PLL_ENABLE();
 8001416:	4b37      	ldr	r3, [pc, #220]	; (80014f4 <HAL_RCC_OscConfig+0x4ec>)
 8001418:	2201      	movs	r2, #1
 800141a:	601a      	str	r2, [r3, #0]

        /* Get Start Tick */
        tickstart = HAL_GetTick();
 800141c:	f7ff fb28 	bl	8000a70 <HAL_GetTick>
 8001420:	6138      	str	r0, [r7, #16]

        /* Wait till PLL is ready */
        while(__HAL_RCC_GET_FLAG(RCC_FLAG_PLLRDY) == RESET)
 8001422:	e008      	b.n	8001436 <HAL_RCC_OscConfig+0x42e>
        {
          if((HAL_GetTick() - tickstart ) > PLL_TIMEOUT_VALUE)
 8001424:	f7ff fb24 	bl	8000a70 <HAL_GetTick>
 8001428:	4602      	mov	r2, r0
 800142a:	693b      	ldr	r3, [r7, #16]
 800142c:	1ad3      	subs	r3, r2, r3
 800142e:	2b02      	cmp	r3, #2
 8001430:	d901      	bls.n	8001436 <HAL_RCC_OscConfig+0x42e>
          {
            return HAL_TIMEOUT;
 8001432:	2303      	movs	r3, #3
 8001434:	e056      	b.n	80014e4 <HAL_RCC_OscConfig+0x4dc>
        while(__HAL_RCC_GET_FLAG(RCC_FLAG_PLLRDY) == RESET)
 8001436:	4b2e      	ldr	r3, [pc, #184]	; (80014f0 <HAL_RCC_OscConfig+0x4e8>)
 8001438:	681b      	ldr	r3, [r3, #0]
 800143a:	f003 7300 	and.w	r3, r3, #33554432	; 0x2000000
 800143e:	2b00      	cmp	r3, #0
 8001440:	d0f0      	beq.n	8001424 <HAL_RCC_OscConfig+0x41c>
 8001442:	e04e      	b.n	80014e2 <HAL_RCC_OscConfig+0x4da>
        }
      }
      else
      {
        /* Disable the main PLL. */
        __HAL_RCC_PLL_DISABLE();
 8001444:	4b2b      	ldr	r3, [pc, #172]	; (80014f4 <HAL_RCC_OscConfig+0x4ec>)
 8001446:	2200      	movs	r2, #0
 8001448:	601a      	str	r2, [r3, #0]

        /* Get Start Tick */
        tickstart = HAL_GetTick();
 800144a:	f7ff fb11 	bl	8000a70 <HAL_GetTick>
 800144e:	6138      	str	r0, [r7, #16]

        /* Wait till PLL is ready */
        while(__HAL_RCC_GET_FLAG(RCC_FLAG_PLLRDY) != RESET)
 8001450:	e008      	b.n	8001464 <HAL_RCC_OscConfig+0x45c>
        {
          if((HAL_GetTick() - tickstart ) > PLL_TIMEOUT_VALUE)
 8001452:	f7ff fb0d 	bl	8000a70 <HAL_GetTick>
 8001456:	4602      	mov	r2, r0
 8001458:	693b      	ldr	r3, [r7, #16]
 800145a:	1ad3      	subs	r3, r2, r3
 800145c:	2b02      	cmp	r3, #2
 800145e:	d901      	bls.n	8001464 <HAL_RCC_OscConfig+0x45c>
          {
            return HAL_TIMEOUT;
 8001460:	2303      	movs	r3, #3
 8001462:	e03f      	b.n	80014e4 <HAL_RCC_OscConfig+0x4dc>
        while(__HAL_RCC_GET_FLAG(RCC_FLAG_PLLRDY) != RESET)
 8001464:	4b22      	ldr	r3, [pc, #136]	; (80014f0 <HAL_RCC_OscConfig+0x4e8>)
 8001466:	681b      	ldr	r3, [r3, #0]
 8001468:	f003 7300 	and.w	r3, r3, #33554432	; 0x2000000
 800146c:	2b00      	cmp	r3, #0
 800146e:	d1f0      	bne.n	8001452 <HAL_RCC_OscConfig+0x44a>
 8001470:	e037      	b.n	80014e2 <HAL_RCC_OscConfig+0x4da>
      }
    }
    else
    {
      /* Check if there is a request to disable the PLL used as System clock source */
      if((RCC_OscInitStruct->PLL.PLLState) == RCC_PLL_OFF)
 8001472:	687b      	ldr	r3, [r7, #4]
 8001474:	699b      	ldr	r3, [r3, #24]
 8001476:	2b01      	cmp	r3, #1
 8001478:	d101      	bne.n	800147e <HAL_RCC_OscConfig+0x476>
      {
        return HAL_ERROR;
 800147a:	2301      	movs	r3, #1
 800147c:	e032      	b.n	80014e4 <HAL_RCC_OscConfig+0x4dc>
      }
      else
      {
        /* Do not return HAL_ERROR if request repeats the current configuration */
        pll_config = RCC->PLLCFGR;
 800147e:	4b1c      	ldr	r3, [pc, #112]	; (80014f0 <HAL_RCC_OscConfig+0x4e8>)
 8001480:	685b      	ldr	r3, [r3, #4]
 8001482:	60fb      	str	r3, [r7, #12]
            (READ_BIT(pll_config, RCC_PLLCFGR_PLLN) != (RCC_OscInitStruct->PLL.PLLN) << RCC_PLLCFGR_PLLN_Pos) ||
            (READ_BIT(pll_config, RCC_PLLCFGR_PLLP) != (((RCC_OscInitStruct->PLL.PLLP >> 1U) - 1U)) << RCC_PLLCFGR_PLLP_Pos) ||
            (READ_BIT(pll_config, RCC_PLLCFGR_PLLQ) != (RCC_OscInitStruct->PLL.PLLQ << RCC_PLLCFGR_PLLQ_Pos)) ||
            (READ_BIT(pll_config, RCC_PLLCFGR_PLLR) != (RCC_OscInitStruct->PLL.PLLR << RCC_PLLCFGR_PLLR_Pos)))
#else
        if (((RCC_OscInitStruct->PLL.PLLState) == RCC_PLL_OFF) ||
 8001484:	687b      	ldr	r3, [r7, #4]
 8001486:	699b      	ldr	r3, [r3, #24]
 8001488:	2b01      	cmp	r3, #1
 800148a:	d028      	beq.n	80014de <HAL_RCC_OscConfig+0x4d6>
            (READ_BIT(pll_config, RCC_PLLCFGR_PLLSRC) != RCC_OscInitStruct->PLL.PLLSource) ||
 800148c:	68fb      	ldr	r3, [r7, #12]
 800148e:	f403 0280 	and.w	r2, r3, #4194304	; 0x400000
 8001492:	687b      	ldr	r3, [r7, #4]
 8001494:	69db      	ldr	r3, [r3, #28]
        if (((RCC_OscInitStruct->PLL.PLLState) == RCC_PLL_OFF) ||
 8001496:	429a      	cmp	r2, r3
 8001498:	d121      	bne.n	80014de <HAL_RCC_OscConfig+0x4d6>
            (READ_BIT(pll_config, RCC_PLLCFGR_PLLM) != (RCC_OscInitStruct->PLL.PLLM) << RCC_PLLCFGR_PLLM_Pos) ||
 800149a:	68fb      	ldr	r3, [r7, #12]
 800149c:	f003 023f 	and.w	r2, r3, #63	; 0x3f
 80014a0:	687b      	ldr	r3, [r7, #4]
 80014a2:	6a1b      	ldr	r3, [r3, #32]
            (READ_BIT(pll_config, RCC_PLLCFGR_PLLSRC) != RCC_OscInitStruct->PLL.PLLSource) ||
 80014a4:	429a      	cmp	r2, r3
 80014a6:	d11a      	bne.n	80014de <HAL_RCC_OscConfig+0x4d6>
            (READ_BIT(pll_config, RCC_PLLCFGR_PLLN) != (RCC_OscInitStruct->PLL.PLLN) << RCC_PLLCFGR_PLLN_Pos) ||
 80014a8:	68fa      	ldr	r2, [r7, #12]
 80014aa:	f647 73c0 	movw	r3, #32704	; 0x7fc0
 80014ae:	4013      	ands	r3, r2
 80014b0:	687a      	ldr	r2, [r7, #4]
 80014b2:	6a52      	ldr	r2, [r2, #36]	; 0x24
 80014b4:	0192      	lsls	r2, r2, #6
            (READ_BIT(pll_config, RCC_PLLCFGR_PLLM) != (RCC_OscInitStruct->PLL.PLLM) << RCC_PLLCFGR_PLLM_Pos) ||
 80014b6:	4293      	cmp	r3, r2
 80014b8:	d111      	bne.n	80014de <HAL_RCC_OscConfig+0x4d6>
            (READ_BIT(pll_config, RCC_PLLCFGR_PLLP) != (((RCC_OscInitStruct->PLL.PLLP >> 1U) - 1U)) << RCC_PLLCFGR_PLLP_Pos) ||
 80014ba:	68fb      	ldr	r3, [r7, #12]
 80014bc:	f403 3240 	and.w	r2, r3, #196608	; 0x30000
 80014c0:	687b      	ldr	r3, [r7, #4]
 80014c2:	6a9b      	ldr	r3, [r3, #40]	; 0x28
 80014c4:	085b      	lsrs	r3, r3, #1
 80014c6:	3b01      	subs	r3, #1
 80014c8:	041b      	lsls	r3, r3, #16
            (READ_BIT(pll_config, RCC_PLLCFGR_PLLN) != (RCC_OscInitStruct->PLL.PLLN) << RCC_PLLCFGR_PLLN_Pos) ||
 80014ca:	429a      	cmp	r2, r3
 80014cc:	d107      	bne.n	80014de <HAL_RCC_OscConfig+0x4d6>
            (READ_BIT(pll_config, RCC_PLLCFGR_PLLQ) != (RCC_OscInitStruct->PLL.PLLQ << RCC_PLLCFGR_PLLQ_Pos)))
 80014ce:	68fb      	ldr	r3, [r7, #12]
 80014d0:	f003 6270 	and.w	r2, r3, #251658240	; 0xf000000
 80014d4:	687b      	ldr	r3, [r7, #4]
 80014d6:	6adb      	ldr	r3, [r3, #44]	; 0x2c
 80014d8:	061b      	lsls	r3, r3, #24
            (READ_BIT(pll_config, RCC_PLLCFGR_PLLP) != (((RCC_OscInitStruct->PLL.PLLP >> 1U) - 1U)) << RCC_PLLCFGR_PLLP_Pos) ||
 80014da:	429a      	cmp	r2, r3
 80014dc:	d001      	beq.n	80014e2 <HAL_RCC_OscConfig+0x4da>
#endif
        {
          return HAL_ERROR;
 80014de:	2301      	movs	r3, #1
 80014e0:	e000      	b.n	80014e4 <HAL_RCC_OscConfig+0x4dc>
        }
      }
    }
  }
  return HAL_OK;
 80014e2:	2300      	movs	r3, #0
}
 80014e4:	4618      	mov	r0, r3
 80014e6:	3718      	adds	r7, #24
 80014e8:	46bd      	mov	sp, r7
 80014ea:	bd80      	pop	{r7, pc}
 80014ec:	40007000 	.word	0x40007000
 80014f0:	40023800 	.word	0x40023800
 80014f4:	42470060 	.word	0x42470060

080014f8 <HAL_RCC_ClockConfig>:
  *         HPRE[3:0] bits to ensure that HCLK not exceed the maximum allowed frequency
  *         (for more details refer to section above "Initialization/de-initialization functions")
  * @retval None
  */
HAL_StatusTypeDef HAL_RCC_ClockConfig(RCC_ClkInitTypeDef  *RCC_ClkInitStruct, uint32_t FLatency)
{
 80014f8:	b580      	push	{r7, lr}
 80014fa:	b084      	sub	sp, #16
 80014fc:	af00      	add	r7, sp, #0
 80014fe:	6078      	str	r0, [r7, #4]
 8001500:	6039      	str	r1, [r7, #0]
  uint32_t tickstart;

  /* Check Null pointer */
  if(RCC_ClkInitStruct == NULL)
 8001502:	687b      	ldr	r3, [r7, #4]
 8001504:	2b00      	cmp	r3, #0
 8001506:	d101      	bne.n	800150c <HAL_RCC_ClockConfig+0x14>
  {
    return HAL_ERROR;
 8001508:	2301      	movs	r3, #1
 800150a:	e0cc      	b.n	80016a6 <HAL_RCC_ClockConfig+0x1ae>
  /* To correctly read data from FLASH memory, the number of wait states (LATENCY)
    must be correctly programmed according to the frequency of the CPU clock
    (HCLK) and the supply voltage of the device. */

  /* Increasing the number of wait states because of higher CPU frequency */
  if(FLatency > __HAL_FLASH_GET_LATENCY())
 800150c:	4b68      	ldr	r3, [pc, #416]	; (80016b0 <HAL_RCC_ClockConfig+0x1b8>)
 800150e:	681b      	ldr	r3, [r3, #0]
 8001510:	f003 0307 	and.w	r3, r3, #7
 8001514:	683a      	ldr	r2, [r7, #0]
 8001516:	429a      	cmp	r2, r3
 8001518:	d90c      	bls.n	8001534 <HAL_RCC_ClockConfig+0x3c>
  {
    /* Program the new number of wait states to the LATENCY bits in the FLASH_ACR register */
    __HAL_FLASH_SET_LATENCY(FLatency);
 800151a:	4b65      	ldr	r3, [pc, #404]	; (80016b0 <HAL_RCC_ClockConfig+0x1b8>)
 800151c:	683a      	ldr	r2, [r7, #0]
 800151e:	b2d2      	uxtb	r2, r2
 8001520:	701a      	strb	r2, [r3, #0]

    /* Check that the new number of wait states is taken into account to access the Flash
    memory by reading the FLASH_ACR register */
    if(__HAL_FLASH_GET_LATENCY() != FLatency)
 8001522:	4b63      	ldr	r3, [pc, #396]	; (80016b0 <HAL_RCC_ClockConfig+0x1b8>)
 8001524:	681b      	ldr	r3, [r3, #0]
 8001526:	f003 0307 	and.w	r3, r3, #7
 800152a:	683a      	ldr	r2, [r7, #0]
 800152c:	429a      	cmp	r2, r3
 800152e:	d001      	beq.n	8001534 <HAL_RCC_ClockConfig+0x3c>
    {
      return HAL_ERROR;
 8001530:	2301      	movs	r3, #1
 8001532:	e0b8      	b.n	80016a6 <HAL_RCC_ClockConfig+0x1ae>
    }
  }

  /*-------------------------- HCLK Configuration --------------------------*/
  if(((RCC_ClkInitStruct->ClockType) & RCC_CLOCKTYPE_HCLK) == RCC_CLOCKTYPE_HCLK)
 8001534:	687b      	ldr	r3, [r7, #4]
 8001536:	681b      	ldr	r3, [r3, #0]
 8001538:	f003 0302 	and.w	r3, r3, #2
 800153c:	2b00      	cmp	r3, #0
 800153e:	d020      	beq.n	8001582 <HAL_RCC_ClockConfig+0x8a>
  {
    /* Set the highest APBx dividers in order to ensure that we do not go through
       a non-spec phase whatever we decrease or increase HCLK. */
    if(((RCC_ClkInitStruct->ClockType) & RCC_CLOCKTYPE_PCLK1) == RCC_CLOCKTYPE_PCLK1)
 8001540:	687b      	ldr	r3, [r7, #4]
 8001542:	681b      	ldr	r3, [r3, #0]
 8001544:	f003 0304 	and.w	r3, r3, #4
 8001548:	2b00      	cmp	r3, #0
 800154a:	d005      	beq.n	8001558 <HAL_RCC_ClockConfig+0x60>
    {
      MODIFY_REG(RCC->CFGR, RCC_CFGR_PPRE1, RCC_HCLK_DIV16);
 800154c:	4b59      	ldr	r3, [pc, #356]	; (80016b4 <HAL_RCC_ClockConfig+0x1bc>)
 800154e:	689b      	ldr	r3, [r3, #8]
 8001550:	4a58      	ldr	r2, [pc, #352]	; (80016b4 <HAL_RCC_ClockConfig+0x1bc>)
 8001552:	f443 53e0 	orr.w	r3, r3, #7168	; 0x1c00
 8001556:	6093      	str	r3, [r2, #8]
    }

    if(((RCC_ClkInitStruct->ClockType) & RCC_CLOCKTYPE_PCLK2) == RCC_CLOCKTYPE_PCLK2)
 8001558:	687b      	ldr	r3, [r7, #4]
 800155a:	681b      	ldr	r3, [r3, #0]
 800155c:	f003 0308 	and.w	r3, r3, #8
 8001560:	2b00      	cmp	r3, #0
 8001562:	d005      	beq.n	8001570 <HAL_RCC_ClockConfig+0x78>
    {
      MODIFY_REG(RCC->CFGR, RCC_CFGR_PPRE2, (RCC_HCLK_DIV16 << 3));
 8001564:	4b53      	ldr	r3, [pc, #332]	; (80016b4 <HAL_RCC_ClockConfig+0x1bc>)
 8001566:	689b      	ldr	r3, [r3, #8]
 8001568:	4a52      	ldr	r2, [pc, #328]	; (80016b4 <HAL_RCC_ClockConfig+0x1bc>)
 800156a:	f443 4360 	orr.w	r3, r3, #57344	; 0xe000
 800156e:	6093      	str	r3, [r2, #8]
    }

    assert_param(IS_RCC_HCLK(RCC_ClkInitStruct->AHBCLKDivider));
    MODIFY_REG(RCC->CFGR, RCC_CFGR_HPRE, RCC_ClkInitStruct->AHBCLKDivider);
 8001570:	4b50      	ldr	r3, [pc, #320]	; (80016b4 <HAL_RCC_ClockConfig+0x1bc>)
 8001572:	689b      	ldr	r3, [r3, #8]
 8001574:	f023 02f0 	bic.w	r2, r3, #240	; 0xf0
 8001578:	687b      	ldr	r3, [r7, #4]
 800157a:	689b      	ldr	r3, [r3, #8]
 800157c:	494d      	ldr	r1, [pc, #308]	; (80016b4 <HAL_RCC_ClockConfig+0x1bc>)
 800157e:	4313      	orrs	r3, r2
 8001580:	608b      	str	r3, [r1, #8]
  }

  /*------------------------- SYSCLK Configuration ---------------------------*/
  if(((RCC_ClkInitStruct->ClockType) & RCC_CLOCKTYPE_SYSCLK) == RCC_CLOCKTYPE_SYSCLK)
 8001582:	687b      	ldr	r3, [r7, #4]
 8001584:	681b      	ldr	r3, [r3, #0]
 8001586:	f003 0301 	and.w	r3, r3, #1
 800158a:	2b00      	cmp	r3, #0
 800158c:	d044      	beq.n	8001618 <HAL_RCC_ClockConfig+0x120>
  {
    assert_param(IS_RCC_SYSCLKSOURCE(RCC_ClkInitStruct->SYSCLKSource));

    /* HSE is selected as System Clock Source */
    if(RCC_ClkInitStruct->SYSCLKSource == RCC_SYSCLKSOURCE_HSE)
 800158e:	687b      	ldr	r3, [r7, #4]
 8001590:	685b      	ldr	r3, [r3, #4]
 8001592:	2b01      	cmp	r3, #1
 8001594:	d107      	bne.n	80015a6 <HAL_RCC_ClockConfig+0xae>
    {
      /* Check the HSE ready flag */
      if(__HAL_RCC_GET_FLAG(RCC_FLAG_HSERDY) == RESET)
 8001596:	4b47      	ldr	r3, [pc, #284]	; (80016b4 <HAL_RCC_ClockConfig+0x1bc>)
 8001598:	681b      	ldr	r3, [r3, #0]
 800159a:	f403 3300 	and.w	r3, r3, #131072	; 0x20000
 800159e:	2b00      	cmp	r3, #0
 80015a0:	d119      	bne.n	80015d6 <HAL_RCC_ClockConfig+0xde>
      {
        return HAL_ERROR;
 80015a2:	2301      	movs	r3, #1
 80015a4:	e07f      	b.n	80016a6 <HAL_RCC_ClockConfig+0x1ae>
      }
    }
    /* PLL is selected as System Clock Source */
    else if((RCC_ClkInitStruct->SYSCLKSource == RCC_SYSCLKSOURCE_PLLCLK)   ||
 80015a6:	687b      	ldr	r3, [r7, #4]
 80015a8:	685b      	ldr	r3, [r3, #4]
 80015aa:	2b02      	cmp	r3, #2
 80015ac:	d003      	beq.n	80015b6 <HAL_RCC_ClockConfig+0xbe>
            (RCC_ClkInitStruct->SYSCLKSource == RCC_SYSCLKSOURCE_PLLRCLK))
 80015ae:	687b      	ldr	r3, [r7, #4]
 80015b0:	685b      	ldr	r3, [r3, #4]
    else if((RCC_ClkInitStruct->SYSCLKSource == RCC_SYSCLKSOURCE_PLLCLK)   ||
 80015b2:	2b03      	cmp	r3, #3
 80015b4:	d107      	bne.n	80015c6 <HAL_RCC_ClockConfig+0xce>
    {
      /* Check the PLL ready flag */
      if(__HAL_RCC_GET_FLAG(RCC_FLAG_PLLRDY) == RESET)
 80015b6:	4b3f      	ldr	r3, [pc, #252]	; (80016b4 <HAL_RCC_ClockConfig+0x1bc>)
 80015b8:	681b      	ldr	r3, [r3, #0]
 80015ba:	f003 7300 	and.w	r3, r3, #33554432	; 0x2000000
 80015be:	2b00      	cmp	r3, #0
 80015c0:	d109      	bne.n	80015d6 <HAL_RCC_ClockConfig+0xde>
      {
        return HAL_ERROR;
 80015c2:	2301      	movs	r3, #1
 80015c4:	e06f      	b.n	80016a6 <HAL_RCC_ClockConfig+0x1ae>
    }
    /* HSI is selected as System Clock Source */
    else
    {
      /* Check the HSI ready flag */
      if(__HAL_RCC_GET_FLAG(RCC_FLAG_HSIRDY) == RESET)
 80015c6:	4b3b      	ldr	r3, [pc, #236]	; (80016b4 <HAL_RCC_ClockConfig+0x1bc>)
 80015c8:	681b      	ldr	r3, [r3, #0]
 80015ca:	f003 0302 	and.w	r3, r3, #2
 80015ce:	2b00      	cmp	r3, #0
 80015d0:	d101      	bne.n	80015d6 <HAL_RCC_ClockConfig+0xde>
      {
        return HAL_ERROR;
 80015d2:	2301      	movs	r3, #1
 80015d4:	e067      	b.n	80016a6 <HAL_RCC_ClockConfig+0x1ae>
      }
    }

    __HAL_RCC_SYSCLK_CONFIG(RCC_ClkInitStruct->SYSCLKSource);
 80015d6:	4b37      	ldr	r3, [pc, #220]	; (80016b4 <HAL_RCC_ClockConfig+0x1bc>)
 80015d8:	689b      	ldr	r3, [r3, #8]
 80015da:	f023 0203 	bic.w	r2, r3, #3
 80015de:	687b      	ldr	r3, [r7, #4]
 80015e0:	685b      	ldr	r3, [r3, #4]
 80015e2:	4934      	ldr	r1, [pc, #208]	; (80016b4 <HAL_RCC_ClockConfig+0x1bc>)
 80015e4:	4313      	orrs	r3, r2
 80015e6:	608b      	str	r3, [r1, #8]

    /* Get Start Tick */
    tickstart = HAL_GetTick();
 80015e8:	f7ff fa42 	bl	8000a70 <HAL_GetTick>
 80015ec:	60f8      	str	r0, [r7, #12]

    while (__HAL_RCC_GET_SYSCLK_SOURCE() != (RCC_ClkInitStruct->SYSCLKSource << RCC_CFGR_SWS_Pos))
 80015ee:	e00a      	b.n	8001606 <HAL_RCC_ClockConfig+0x10e>
    {
      if ((HAL_GetTick() - tickstart) > CLOCKSWITCH_TIMEOUT_VALUE)
 80015f0:	f7ff fa3e 	bl	8000a70 <HAL_GetTick>
 80015f4:	4602      	mov	r2, r0
 80015f6:	68fb      	ldr	r3, [r7, #12]
 80015f8:	1ad3      	subs	r3, r2, r3
 80015fa:	f241 3288 	movw	r2, #5000	; 0x1388
 80015fe:	4293      	cmp	r3, r2
 8001600:	d901      	bls.n	8001606 <HAL_RCC_ClockConfig+0x10e>
      {
        return HAL_TIMEOUT;
 8001602:	2303      	movs	r3, #3
 8001604:	e04f      	b.n	80016a6 <HAL_RCC_ClockConfig+0x1ae>
    while (__HAL_RCC_GET_SYSCLK_SOURCE() != (RCC_ClkInitStruct->SYSCLKSource << RCC_CFGR_SWS_Pos))
 8001606:	4b2b      	ldr	r3, [pc, #172]	; (80016b4 <HAL_RCC_ClockConfig+0x1bc>)
 8001608:	689b      	ldr	r3, [r3, #8]
 800160a:	f003 020c 	and.w	r2, r3, #12
 800160e:	687b      	ldr	r3, [r7, #4]
 8001610:	685b      	ldr	r3, [r3, #4]
 8001612:	009b      	lsls	r3, r3, #2
 8001614:	429a      	cmp	r2, r3
 8001616:	d1eb      	bne.n	80015f0 <HAL_RCC_ClockConfig+0xf8>
      }
    }
  }

  /* Decreasing the number of wait states because of lower CPU frequency */
  if(FLatency < __HAL_FLASH_GET_LATENCY())
 8001618:	4b25      	ldr	r3, [pc, #148]	; (80016b0 <HAL_RCC_ClockConfig+0x1b8>)
 800161a:	681b      	ldr	r3, [r3, #0]
 800161c:	f003 0307 	and.w	r3, r3, #7
 8001620:	683a      	ldr	r2, [r7, #0]
 8001622:	429a      	cmp	r2, r3
 8001624:	d20c      	bcs.n	8001640 <HAL_RCC_ClockConfig+0x148>
  {
     /* Program the new number of wait states to the LATENCY bits in the FLASH_ACR register */
    __HAL_FLASH_SET_LATENCY(FLatency);
 8001626:	4b22      	ldr	r3, [pc, #136]	; (80016b0 <HAL_RCC_ClockConfig+0x1b8>)
 8001628:	683a      	ldr	r2, [r7, #0]
 800162a:	b2d2      	uxtb	r2, r2
 800162c:	701a      	strb	r2, [r3, #0]

    /* Check that the new number of wait states is taken into account to access the Flash
    memory by reading the FLASH_ACR register */
    if(__HAL_FLASH_GET_LATENCY() != FLatency)
 800162e:	4b20      	ldr	r3, [pc, #128]	; (80016b0 <HAL_RCC_ClockConfig+0x1b8>)
 8001630:	681b      	ldr	r3, [r3, #0]
 8001632:	f003 0307 	and.w	r3, r3, #7
 8001636:	683a      	ldr	r2, [r7, #0]
 8001638:	429a      	cmp	r2, r3
 800163a:	d001      	beq.n	8001640 <HAL_RCC_ClockConfig+0x148>
    {
      return HAL_ERROR;
 800163c:	2301      	movs	r3, #1
 800163e:	e032      	b.n	80016a6 <HAL_RCC_ClockConfig+0x1ae>
    }
  }

  /*-------------------------- PCLK1 Configuration ---------------------------*/
  if(((RCC_ClkInitStruct->ClockType) & RCC_CLOCKTYPE_PCLK1) == RCC_CLOCKTYPE_PCLK1)
 8001640:	687b      	ldr	r3, [r7, #4]
 8001642:	681b      	ldr	r3, [r3, #0]
 8001644:	f003 0304 	and.w	r3, r3, #4
 8001648:	2b00      	cmp	r3, #0
 800164a:	d008      	beq.n	800165e <HAL_RCC_ClockConfig+0x166>
  {
    assert_param(IS_RCC_PCLK(RCC_ClkInitStruct->APB1CLKDivider));
    MODIFY_REG(RCC->CFGR, RCC_CFGR_PPRE1, RCC_ClkInitStruct->APB1CLKDivider);
 800164c:	4b19      	ldr	r3, [pc, #100]	; (80016b4 <HAL_RCC_ClockConfig+0x1bc>)
 800164e:	689b      	ldr	r3, [r3, #8]
 8001650:	f423 52e0 	bic.w	r2, r3, #7168	; 0x1c00
 8001654:	687b      	ldr	r3, [r7, #4]
 8001656:	68db      	ldr	r3, [r3, #12]
 8001658:	4916      	ldr	r1, [pc, #88]	; (80016b4 <HAL_RCC_ClockConfig+0x1bc>)
 800165a:	4313      	orrs	r3, r2
 800165c:	608b      	str	r3, [r1, #8]
  }

  /*-------------------------- PCLK2 Configuration ---------------------------*/
  if(((RCC_ClkInitStruct->ClockType) & RCC_CLOCKTYPE_PCLK2) == RCC_CLOCKTYPE_PCLK2)
 800165e:	687b      	ldr	r3, [r7, #4]
 8001660:	681b      	ldr	r3, [r3, #0]
 8001662:	f003 0308 	and.w	r3, r3, #8
 8001666:	2b00      	cmp	r3, #0
 8001668:	d009      	beq.n	800167e <HAL_RCC_ClockConfig+0x186>
  {
    assert_param(IS_RCC_PCLK(RCC_ClkInitStruct->APB2CLKDivider));
    MODIFY_REG(RCC->CFGR, RCC_CFGR_PPRE2, ((RCC_ClkInitStruct->APB2CLKDivider) << 3U));
 800166a:	4b12      	ldr	r3, [pc, #72]	; (80016b4 <HAL_RCC_ClockConfig+0x1bc>)
 800166c:	689b      	ldr	r3, [r3, #8]
 800166e:	f423 4260 	bic.w	r2, r3, #57344	; 0xe000
 8001672:	687b      	ldr	r3, [r7, #4]
 8001674:	691b      	ldr	r3, [r3, #16]
 8001676:	00db      	lsls	r3, r3, #3
 8001678:	490e      	ldr	r1, [pc, #56]	; (80016b4 <HAL_RCC_ClockConfig+0x1bc>)
 800167a:	4313      	orrs	r3, r2
 800167c:	608b      	str	r3, [r1, #8]
  }

  /* Update the SystemCoreClock global variable */
  SystemCoreClock = HAL_RCC_GetSysClockFreq() >> AHBPrescTable[(RCC->CFGR & RCC_CFGR_HPRE)>> RCC_CFGR_HPRE_Pos];
 800167e:	f000 f821 	bl	80016c4 <HAL_RCC_GetSysClockFreq>
 8001682:	4602      	mov	r2, r0
 8001684:	4b0b      	ldr	r3, [pc, #44]	; (80016b4 <HAL_RCC_ClockConfig+0x1bc>)
 8001686:	689b      	ldr	r3, [r3, #8]
 8001688:	091b      	lsrs	r3, r3, #4
 800168a:	f003 030f 	and.w	r3, r3, #15
 800168e:	490a      	ldr	r1, [pc, #40]	; (80016b8 <HAL_RCC_ClockConfig+0x1c0>)
 8001690:	5ccb      	ldrb	r3, [r1, r3]
 8001692:	fa22 f303 	lsr.w	r3, r2, r3
 8001696:	4a09      	ldr	r2, [pc, #36]	; (80016bc <HAL_RCC_ClockConfig+0x1c4>)
 8001698:	6013      	str	r3, [r2, #0]

  /* Configure the source of time base considering new system clocks settings */
  HAL_InitTick (uwTickPrio);
 800169a:	4b09      	ldr	r3, [pc, #36]	; (80016c0 <HAL_RCC_ClockConfig+0x1c8>)
 800169c:	681b      	ldr	r3, [r3, #0]
 800169e:	4618      	mov	r0, r3
 80016a0:	f7ff f9a2 	bl	80009e8 <HAL_InitTick>

  return HAL_OK;
 80016a4:	2300      	movs	r3, #0
}
 80016a6:	4618      	mov	r0, r3
 80016a8:	3710      	adds	r7, #16
 80016aa:	46bd      	mov	sp, r7
 80016ac:	bd80      	pop	{r7, pc}
 80016ae:	bf00      	nop
 80016b0:	40023c00 	.word	0x40023c00
 80016b4:	40023800 	.word	0x40023800
 80016b8:	08002084 	.word	0x08002084
 80016bc:	20000000 	.word	0x20000000
 80016c0:	20000004 	.word	0x20000004

080016c4 <HAL_RCC_GetSysClockFreq>:
  *
  *
  * @retval SYSCLK frequency
  */
__weak uint32_t HAL_RCC_GetSysClockFreq(void)
{
 80016c4:	b5b0      	push	{r4, r5, r7, lr}
 80016c6:	b084      	sub	sp, #16
 80016c8:	af00      	add	r7, sp, #0
  uint32_t pllm = 0U, pllvco = 0U, pllp = 0U;
 80016ca:	2100      	movs	r1, #0
 80016cc:	6079      	str	r1, [r7, #4]
 80016ce:	2100      	movs	r1, #0
 80016d0:	60f9      	str	r1, [r7, #12]
 80016d2:	2100      	movs	r1, #0
 80016d4:	6039      	str	r1, [r7, #0]
  uint32_t sysclockfreq = 0U;
 80016d6:	2100      	movs	r1, #0
 80016d8:	60b9      	str	r1, [r7, #8]

  /* Get SYSCLK source -------------------------------------------------------*/
  switch (RCC->CFGR & RCC_CFGR_SWS)
 80016da:	4952      	ldr	r1, [pc, #328]	; (8001824 <HAL_RCC_GetSysClockFreq+0x160>)
 80016dc:	6889      	ldr	r1, [r1, #8]
 80016de:	f001 010c 	and.w	r1, r1, #12
 80016e2:	2908      	cmp	r1, #8
 80016e4:	d00d      	beq.n	8001702 <HAL_RCC_GetSysClockFreq+0x3e>
 80016e6:	2908      	cmp	r1, #8
 80016e8:	f200 8094 	bhi.w	8001814 <HAL_RCC_GetSysClockFreq+0x150>
 80016ec:	2900      	cmp	r1, #0
 80016ee:	d002      	beq.n	80016f6 <HAL_RCC_GetSysClockFreq+0x32>
 80016f0:	2904      	cmp	r1, #4
 80016f2:	d003      	beq.n	80016fc <HAL_RCC_GetSysClockFreq+0x38>
 80016f4:	e08e      	b.n	8001814 <HAL_RCC_GetSysClockFreq+0x150>
  {
    case RCC_CFGR_SWS_HSI:  /* HSI used as system clock source */
    {
      sysclockfreq = HSI_VALUE;
 80016f6:	4b4c      	ldr	r3, [pc, #304]	; (8001828 <HAL_RCC_GetSysClockFreq+0x164>)
 80016f8:	60bb      	str	r3, [r7, #8]
       break;
 80016fa:	e08e      	b.n	800181a <HAL_RCC_GetSysClockFreq+0x156>
    }
    case RCC_CFGR_SWS_HSE:  /* HSE used as system clock  source */
    {
      sysclockfreq = HSE_VALUE;
 80016fc:	4b4b      	ldr	r3, [pc, #300]	; (800182c <HAL_RCC_GetSysClockFreq+0x168>)
 80016fe:	60bb      	str	r3, [r7, #8]
      break;
 8001700:	e08b      	b.n	800181a <HAL_RCC_GetSysClockFreq+0x156>
    }
    case RCC_CFGR_SWS_PLL:  /* PLL used as system clock  source */
    {
      /* PLL_VCO = (HSE_VALUE or HSI_VALUE / PLLM) * PLLN
      SYSCLK = PLL_VCO / PLLP */
      pllm = RCC->PLLCFGR & RCC_PLLCFGR_PLLM;
 8001702:	4948      	ldr	r1, [pc, #288]	; (8001824 <HAL_RCC_GetSysClockFreq+0x160>)
 8001704:	6849      	ldr	r1, [r1, #4]
 8001706:	f001 013f 	and.w	r1, r1, #63	; 0x3f
 800170a:	6079      	str	r1, [r7, #4]
      if(__HAL_RCC_GET_PLL_OSCSOURCE() != RCC_PLLSOURCE_HSI)
 800170c:	4945      	ldr	r1, [pc, #276]	; (8001824 <HAL_RCC_GetSysClockFreq+0x160>)
 800170e:	6849      	ldr	r1, [r1, #4]
 8001710:	f401 0180 	and.w	r1, r1, #4194304	; 0x400000
 8001714:	2900      	cmp	r1, #0
 8001716:	d024      	beq.n	8001762 <HAL_RCC_GetSysClockFreq+0x9e>
      {
        /* HSE used as PLL clock source */
        pllvco = (uint32_t) ((((uint64_t) HSE_VALUE * ((uint64_t) ((RCC->PLLCFGR & RCC_PLLCFGR_PLLN) >> RCC_PLLCFGR_PLLN_Pos)))) / (uint64_t)pllm);
 8001718:	4942      	ldr	r1, [pc, #264]	; (8001824 <HAL_RCC_GetSysClockFreq+0x160>)
 800171a:	6849      	ldr	r1, [r1, #4]
 800171c:	0989      	lsrs	r1, r1, #6
 800171e:	4608      	mov	r0, r1
 8001720:	f04f 0100 	mov.w	r1, #0
 8001724:	f240 14ff 	movw	r4, #511	; 0x1ff
 8001728:	f04f 0500 	mov.w	r5, #0
 800172c:	ea00 0204 	and.w	r2, r0, r4
 8001730:	ea01 0305 	and.w	r3, r1, r5
 8001734:	493d      	ldr	r1, [pc, #244]	; (800182c <HAL_RCC_GetSysClockFreq+0x168>)
 8001736:	fb01 f003 	mul.w	r0, r1, r3
 800173a:	2100      	movs	r1, #0
 800173c:	fb01 f102 	mul.w	r1, r1, r2
 8001740:	1844      	adds	r4, r0, r1
 8001742:	493a      	ldr	r1, [pc, #232]	; (800182c <HAL_RCC_GetSysClockFreq+0x168>)
 8001744:	fba2 0101 	umull	r0, r1, r2, r1
 8001748:	1863      	adds	r3, r4, r1
 800174a:	4619      	mov	r1, r3
 800174c:	687b      	ldr	r3, [r7, #4]
 800174e:	461a      	mov	r2, r3
 8001750:	f04f 0300 	mov.w	r3, #0
 8001754:	f7fe fd38 	bl	80001c8 <__aeabi_uldivmod>
 8001758:	4602      	mov	r2, r0
 800175a:	460b      	mov	r3, r1
 800175c:	4613      	mov	r3, r2
 800175e:	60fb      	str	r3, [r7, #12]
 8001760:	e04a      	b.n	80017f8 <HAL_RCC_GetSysClockFreq+0x134>
      }
      else
      {
        /* HSI used as PLL clock source */
        pllvco = (uint32_t) ((((uint64_t) HSI_VALUE * ((uint64_t) ((RCC->PLLCFGR & RCC_PLLCFGR_PLLN) >> RCC_PLLCFGR_PLLN_Pos)))) / (uint64_t)pllm);
 8001762:	4b30      	ldr	r3, [pc, #192]	; (8001824 <HAL_RCC_GetSysClockFreq+0x160>)
 8001764:	685b      	ldr	r3, [r3, #4]
 8001766:	099b      	lsrs	r3, r3, #6
 8001768:	461a      	mov	r2, r3
 800176a:	f04f 0300 	mov.w	r3, #0
 800176e:	f240 10ff 	movw	r0, #511	; 0x1ff
 8001772:	f04f 0100 	mov.w	r1, #0
 8001776:	ea02 0400 	and.w	r4, r2, r0
 800177a:	ea03 0501 	and.w	r5, r3, r1
 800177e:	4620      	mov	r0, r4
 8001780:	4629      	mov	r1, r5
 8001782:	f04f 0200 	mov.w	r2, #0
 8001786:	f04f 0300 	mov.w	r3, #0
 800178a:	014b      	lsls	r3, r1, #5
 800178c:	ea43 63d0 	orr.w	r3, r3, r0, lsr #27
 8001790:	0142      	lsls	r2, r0, #5
 8001792:	4610      	mov	r0, r2
 8001794:	4619      	mov	r1, r3
 8001796:	1b00      	subs	r0, r0, r4
 8001798:	eb61 0105 	sbc.w	r1, r1, r5
 800179c:	f04f 0200 	mov.w	r2, #0
 80017a0:	f04f 0300 	mov.w	r3, #0
 80017a4:	018b      	lsls	r3, r1, #6
 80017a6:	ea43 6390 	orr.w	r3, r3, r0, lsr #26
 80017aa:	0182      	lsls	r2, r0, #6
 80017ac:	1a12      	subs	r2, r2, r0
 80017ae:	eb63 0301 	sbc.w	r3, r3, r1
 80017b2:	f04f 0000 	mov.w	r0, #0
 80017b6:	f04f 0100 	mov.w	r1, #0
 80017ba:	00d9      	lsls	r1, r3, #3
 80017bc:	ea41 7152 	orr.w	r1, r1, r2, lsr #29
 80017c0:	00d0      	lsls	r0, r2, #3
 80017c2:	4602      	mov	r2, r0
 80017c4:	460b      	mov	r3, r1
 80017c6:	1912      	adds	r2, r2, r4
 80017c8:	eb45 0303 	adc.w	r3, r5, r3
 80017cc:	f04f 0000 	mov.w	r0, #0
 80017d0:	f04f 0100 	mov.w	r1, #0
 80017d4:	0299      	lsls	r1, r3, #10
 80017d6:	ea41 5192 	orr.w	r1, r1, r2, lsr #22
 80017da:	0290      	lsls	r0, r2, #10
 80017dc:	4602      	mov	r2, r0
 80017de:	460b      	mov	r3, r1
 80017e0:	4610      	mov	r0, r2
 80017e2:	4619      	mov	r1, r3
 80017e4:	687b      	ldr	r3, [r7, #4]
 80017e6:	461a      	mov	r2, r3
 80017e8:	f04f 0300 	mov.w	r3, #0
 80017ec:	f7fe fcec 	bl	80001c8 <__aeabi_uldivmod>
 80017f0:	4602      	mov	r2, r0
 80017f2:	460b      	mov	r3, r1
 80017f4:	4613      	mov	r3, r2
 80017f6:	60fb      	str	r3, [r7, #12]
      }
      pllp = ((((RCC->PLLCFGR & RCC_PLLCFGR_PLLP) >> RCC_PLLCFGR_PLLP_Pos) + 1U) *2U);
 80017f8:	4b0a      	ldr	r3, [pc, #40]	; (8001824 <HAL_RCC_GetSysClockFreq+0x160>)
 80017fa:	685b      	ldr	r3, [r3, #4]
 80017fc:	0c1b      	lsrs	r3, r3, #16
 80017fe:	f003 0303 	and.w	r3, r3, #3
 8001802:	3301      	adds	r3, #1
 8001804:	005b      	lsls	r3, r3, #1
 8001806:	603b      	str	r3, [r7, #0]

      sysclockfreq = pllvco/pllp;
 8001808:	68fa      	ldr	r2, [r7, #12]
 800180a:	683b      	ldr	r3, [r7, #0]
 800180c:	fbb2 f3f3 	udiv	r3, r2, r3
 8001810:	60bb      	str	r3, [r7, #8]
      break;
 8001812:	e002      	b.n	800181a <HAL_RCC_GetSysClockFreq+0x156>
    }
    default:
    {
      sysclockfreq = HSI_VALUE;
 8001814:	4b04      	ldr	r3, [pc, #16]	; (8001828 <HAL_RCC_GetSysClockFreq+0x164>)
 8001816:	60bb      	str	r3, [r7, #8]
      break;
 8001818:	bf00      	nop
    }
  }
  return sysclockfreq;
 800181a:	68bb      	ldr	r3, [r7, #8]
}
 800181c:	4618      	mov	r0, r3
 800181e:	3710      	adds	r7, #16
 8001820:	46bd      	mov	sp, r7
 8001822:	bdb0      	pop	{r4, r5, r7, pc}
 8001824:	40023800 	.word	0x40023800
 8001828:	00f42400 	.word	0x00f42400
 800182c:	017d7840 	.word	0x017d7840

08001830 <HAL_RCC_GetHCLKFreq>:
  * @note   The SystemCoreClock CMSIS variable is used to store System Clock Frequency
  *         and updated within this function
  * @retval HCLK frequency
  */
uint32_t HAL_RCC_GetHCLKFreq(void)
{
 8001830:	b480      	push	{r7}
 8001832:	af00      	add	r7, sp, #0
  return SystemCoreClock;
 8001834:	4b03      	ldr	r3, [pc, #12]	; (8001844 <HAL_RCC_GetHCLKFreq+0x14>)
 8001836:	681b      	ldr	r3, [r3, #0]
}
 8001838:	4618      	mov	r0, r3
 800183a:	46bd      	mov	sp, r7
 800183c:	f85d 7b04 	ldr.w	r7, [sp], #4
 8001840:	4770      	bx	lr
 8001842:	bf00      	nop
 8001844:	20000000 	.word	0x20000000

08001848 <HAL_RCC_GetPCLK1Freq>:
  * @note   Each time PCLK1 changes, this function must be called to update the
  *         right PCLK1 value. Otherwise, any configuration based on this function will be incorrect.
  * @retval PCLK1 frequency
  */
uint32_t HAL_RCC_GetPCLK1Freq(void)
{
 8001848:	b580      	push	{r7, lr}
 800184a:	af00      	add	r7, sp, #0
  /* Get HCLK source and Compute PCLK1 frequency ---------------------------*/
  return (HAL_RCC_GetHCLKFreq() >> APBPrescTable[(RCC->CFGR & RCC_CFGR_PPRE1)>> RCC_CFGR_PPRE1_Pos]);
 800184c:	f7ff fff0 	bl	8001830 <HAL_RCC_GetHCLKFreq>
 8001850:	4602      	mov	r2, r0
 8001852:	4b05      	ldr	r3, [pc, #20]	; (8001868 <HAL_RCC_GetPCLK1Freq+0x20>)
 8001854:	689b      	ldr	r3, [r3, #8]
 8001856:	0a9b      	lsrs	r3, r3, #10
 8001858:	f003 0307 	and.w	r3, r3, #7
 800185c:	4903      	ldr	r1, [pc, #12]	; (800186c <HAL_RCC_GetPCLK1Freq+0x24>)
 800185e:	5ccb      	ldrb	r3, [r1, r3]
 8001860:	fa22 f303 	lsr.w	r3, r2, r3
}
 8001864:	4618      	mov	r0, r3
 8001866:	bd80      	pop	{r7, pc}
 8001868:	40023800 	.word	0x40023800
 800186c:	08002094 	.word	0x08002094

08001870 <HAL_RCC_GetPCLK2Freq>:
  * @note   Each time PCLK2 changes, this function must be called to update the
  *         right PCLK2 value. Otherwise, any configuration based on this function will be incorrect.
  * @retval PCLK2 frequency
  */
uint32_t HAL_RCC_GetPCLK2Freq(void)
{
 8001870:	b580      	push	{r7, lr}
 8001872:	af00      	add	r7, sp, #0
  /* Get HCLK source and Compute PCLK2 frequency ---------------------------*/
  return (HAL_RCC_GetHCLKFreq()>> APBPrescTable[(RCC->CFGR & RCC_CFGR_PPRE2)>> RCC_CFGR_PPRE2_Pos]);
 8001874:	f7ff ffdc 	bl	8001830 <HAL_RCC_GetHCLKFreq>
 8001878:	4602      	mov	r2, r0
 800187a:	4b05      	ldr	r3, [pc, #20]	; (8001890 <HAL_RCC_GetPCLK2Freq+0x20>)
 800187c:	689b      	ldr	r3, [r3, #8]
 800187e:	0b5b      	lsrs	r3, r3, #13
 8001880:	f003 0307 	and.w	r3, r3, #7
 8001884:	4903      	ldr	r1, [pc, #12]	; (8001894 <HAL_RCC_GetPCLK2Freq+0x24>)
 8001886:	5ccb      	ldrb	r3, [r1, r3]
 8001888:	fa22 f303 	lsr.w	r3, r2, r3
}
 800188c:	4618      	mov	r0, r3
 800188e:	bd80      	pop	{r7, pc}
 8001890:	40023800 	.word	0x40023800
 8001894:	08002094 	.word	0x08002094

08001898 <HAL_SPI_Init>:
  * @param  hspi pointer to a SPI_HandleTypeDef structure that contains
  *               the configuration information for SPI module.
  * @retval HAL status
  */
HAL_StatusTypeDef HAL_SPI_Init(SPI_HandleTypeDef *hspi)
{
 8001898:	b580      	push	{r7, lr}
 800189a:	b082      	sub	sp, #8
 800189c:	af00      	add	r7, sp, #0
 800189e:	6078      	str	r0, [r7, #4]
  /* Check the SPI handle allocation */
  if (hspi == NULL)
 80018a0:	687b      	ldr	r3, [r7, #4]
 80018a2:	2b00      	cmp	r3, #0
 80018a4:	d101      	bne.n	80018aa <HAL_SPI_Init+0x12>
  {
    return HAL_ERROR;
 80018a6:	2301      	movs	r3, #1
 80018a8:	e07b      	b.n	80019a2 <HAL_SPI_Init+0x10a>
  assert_param(IS_SPI_DATASIZE(hspi->Init.DataSize));
  assert_param(IS_SPI_NSS(hspi->Init.NSS));
  assert_param(IS_SPI_BAUDRATE_PRESCALER(hspi->Init.BaudRatePrescaler));
  assert_param(IS_SPI_FIRST_BIT(hspi->Init.FirstBit));
  assert_param(IS_SPI_TIMODE(hspi->Init.TIMode));
  if (hspi->Init.TIMode == SPI_TIMODE_DISABLE)
 80018aa:	687b      	ldr	r3, [r7, #4]
 80018ac:	6a5b      	ldr	r3, [r3, #36]	; 0x24
 80018ae:	2b00      	cmp	r3, #0
 80018b0:	d108      	bne.n	80018c4 <HAL_SPI_Init+0x2c>
  {
    assert_param(IS_SPI_CPOL(hspi->Init.CLKPolarity));
    assert_param(IS_SPI_CPHA(hspi->Init.CLKPhase));

    if (hspi->Init.Mode == SPI_MODE_MASTER)
 80018b2:	687b      	ldr	r3, [r7, #4]
 80018b4:	685b      	ldr	r3, [r3, #4]
 80018b6:	f5b3 7f82 	cmp.w	r3, #260	; 0x104
 80018ba:	d009      	beq.n	80018d0 <HAL_SPI_Init+0x38>
      assert_param(IS_SPI_BAUDRATE_PRESCALER(hspi->Init.BaudRatePrescaler));
    }
    else
    {
      /* Baudrate prescaler not use in Motoraola Slave mode. force to default value */
      hspi->Init.BaudRatePrescaler = SPI_BAUDRATEPRESCALER_2;
 80018bc:	687b      	ldr	r3, [r7, #4]
 80018be:	2200      	movs	r2, #0
 80018c0:	61da      	str	r2, [r3, #28]
 80018c2:	e005      	b.n	80018d0 <HAL_SPI_Init+0x38>
  else
  {
    assert_param(IS_SPI_BAUDRATE_PRESCALER(hspi->Init.BaudRatePrescaler));

    /* Force polarity and phase to TI protocaol requirements */
    hspi->Init.CLKPolarity = SPI_POLARITY_LOW;
 80018c4:	687b      	ldr	r3, [r7, #4]
 80018c6:	2200      	movs	r2, #0
 80018c8:	611a      	str	r2, [r3, #16]
    hspi->Init.CLKPhase    = SPI_PHASE_1EDGE;
 80018ca:	687b      	ldr	r3, [r7, #4]
 80018cc:	2200      	movs	r2, #0
 80018ce:	615a      	str	r2, [r3, #20]
  if (hspi->Init.CRCCalculation == SPI_CRCCALCULATION_ENABLE)
  {
    assert_param(IS_SPI_CRC_POLYNOMIAL(hspi->Init.CRCPolynomial));
  }
#else
  hspi->Init.CRCCalculation = SPI_CRCCALCULATION_DISABLE;
 80018d0:	687b      	ldr	r3, [r7, #4]
 80018d2:	2200      	movs	r2, #0
 80018d4:	629a      	str	r2, [r3, #40]	; 0x28
#endif /* USE_SPI_CRC */

  if (hspi->State == HAL_SPI_STATE_RESET)
 80018d6:	687b      	ldr	r3, [r7, #4]
 80018d8:	f893 3051 	ldrb.w	r3, [r3, #81]	; 0x51
 80018dc:	b2db      	uxtb	r3, r3
 80018de:	2b00      	cmp	r3, #0
 80018e0:	d106      	bne.n	80018f0 <HAL_SPI_Init+0x58>
  {
    /* Allocate lock resource and initialize it */
    hspi->Lock = HAL_UNLOCKED;
 80018e2:	687b      	ldr	r3, [r7, #4]
 80018e4:	2200      	movs	r2, #0
 80018e6:	f883 2050 	strb.w	r2, [r3, #80]	; 0x50

    /* Init the low level hardware : GPIO, CLOCK, NVIC... */
    hspi->MspInitCallback(hspi);
#else
    /* Init the low level hardware : GPIO, CLOCK, NVIC... */
    HAL_SPI_MspInit(hspi);
 80018ea:	6878      	ldr	r0, [r7, #4]
 80018ec:	f7fe ff64 	bl	80007b8 <HAL_SPI_MspInit>
#endif /* USE_HAL_SPI_REGISTER_CALLBACKS */
  }

  hspi->State = HAL_SPI_STATE_BUSY;
 80018f0:	687b      	ldr	r3, [r7, #4]
 80018f2:	2202      	movs	r2, #2
 80018f4:	f883 2051 	strb.w	r2, [r3, #81]	; 0x51

  /* Disable the selected SPI peripheral */
  __HAL_SPI_DISABLE(hspi);
 80018f8:	687b      	ldr	r3, [r7, #4]
 80018fa:	681b      	ldr	r3, [r3, #0]
 80018fc:	681a      	ldr	r2, [r3, #0]
 80018fe:	687b      	ldr	r3, [r7, #4]
 8001900:	681b      	ldr	r3, [r3, #0]
 8001902:	f022 0240 	bic.w	r2, r2, #64	; 0x40
 8001906:	601a      	str	r2, [r3, #0]

  /*----------------------- SPIx CR1 & CR2 Configuration ---------------------*/
  /* Configure : SPI Mode, Communication Mode, Data size, Clock polarity and phase, NSS management,
  Communication speed, First bit and CRC calculation state */
  WRITE_REG(hspi->Instance->CR1, ((hspi->Init.Mode & (SPI_CR1_MSTR | SPI_CR1_SSI)) |
 8001908:	687b      	ldr	r3, [r7, #4]
 800190a:	685b      	ldr	r3, [r3, #4]
 800190c:	f403 7282 	and.w	r2, r3, #260	; 0x104
 8001910:	687b      	ldr	r3, [r7, #4]
 8001912:	689b      	ldr	r3, [r3, #8]
 8001914:	f403 4304 	and.w	r3, r3, #33792	; 0x8400
 8001918:	431a      	orrs	r2, r3
 800191a:	687b      	ldr	r3, [r7, #4]
 800191c:	68db      	ldr	r3, [r3, #12]
 800191e:	f403 6300 	and.w	r3, r3, #2048	; 0x800
 8001922:	431a      	orrs	r2, r3
 8001924:	687b      	ldr	r3, [r7, #4]
 8001926:	691b      	ldr	r3, [r3, #16]
 8001928:	f003 0302 	and.w	r3, r3, #2
 800192c:	431a      	orrs	r2, r3
 800192e:	687b      	ldr	r3, [r7, #4]
 8001930:	695b      	ldr	r3, [r3, #20]
 8001932:	f003 0301 	and.w	r3, r3, #1
 8001936:	431a      	orrs	r2, r3
 8001938:	687b      	ldr	r3, [r7, #4]
 800193a:	699b      	ldr	r3, [r3, #24]
 800193c:	f403 7300 	and.w	r3, r3, #512	; 0x200
 8001940:	431a      	orrs	r2, r3
 8001942:	687b      	ldr	r3, [r7, #4]
 8001944:	69db      	ldr	r3, [r3, #28]
 8001946:	f003 0338 	and.w	r3, r3, #56	; 0x38
 800194a:	431a      	orrs	r2, r3
 800194c:	687b      	ldr	r3, [r7, #4]
 800194e:	6a1b      	ldr	r3, [r3, #32]
 8001950:	f003 0380 	and.w	r3, r3, #128	; 0x80
 8001954:	ea42 0103 	orr.w	r1, r2, r3
 8001958:	687b      	ldr	r3, [r7, #4]
 800195a:	6a9b      	ldr	r3, [r3, #40]	; 0x28
 800195c:	f403 5200 	and.w	r2, r3, #8192	; 0x2000
 8001960:	687b      	ldr	r3, [r7, #4]
 8001962:	681b      	ldr	r3, [r3, #0]
 8001964:	430a      	orrs	r2, r1
 8001966:	601a      	str	r2, [r3, #0]
                                  (hspi->Init.BaudRatePrescaler & SPI_CR1_BR_Msk) |
                                  (hspi->Init.FirstBit  & SPI_CR1_LSBFIRST) |
                                  (hspi->Init.CRCCalculation & SPI_CR1_CRCEN)));

  /* Configure : NSS management, TI Mode */
  WRITE_REG(hspi->Instance->CR2, (((hspi->Init.NSS >> 16U) & SPI_CR2_SSOE) | (hspi->Init.TIMode & SPI_CR2_FRF)));
 8001968:	687b      	ldr	r3, [r7, #4]
 800196a:	699b      	ldr	r3, [r3, #24]
 800196c:	0c1b      	lsrs	r3, r3, #16
 800196e:	f003 0104 	and.w	r1, r3, #4
 8001972:	687b      	ldr	r3, [r7, #4]
 8001974:	6a5b      	ldr	r3, [r3, #36]	; 0x24
 8001976:	f003 0210 	and.w	r2, r3, #16
 800197a:	687b      	ldr	r3, [r7, #4]
 800197c:	681b      	ldr	r3, [r3, #0]
 800197e:	430a      	orrs	r2, r1
 8001980:	605a      	str	r2, [r3, #4]
  }
#endif /* USE_SPI_CRC */

#if defined(SPI_I2SCFGR_I2SMOD)
  /* Activate the SPI mode (Make sure that I2SMOD bit in I2SCFGR register is reset) */
  CLEAR_BIT(hspi->Instance->I2SCFGR, SPI_I2SCFGR_I2SMOD);
 8001982:	687b      	ldr	r3, [r7, #4]
 8001984:	681b      	ldr	r3, [r3, #0]
 8001986:	69da      	ldr	r2, [r3, #28]
 8001988:	687b      	ldr	r3, [r7, #4]
 800198a:	681b      	ldr	r3, [r3, #0]
 800198c:	f422 6200 	bic.w	r2, r2, #2048	; 0x800
 8001990:	61da      	str	r2, [r3, #28]
#endif /* SPI_I2SCFGR_I2SMOD */

  hspi->ErrorCode = HAL_SPI_ERROR_NONE;
 8001992:	687b      	ldr	r3, [r7, #4]
 8001994:	2200      	movs	r2, #0
 8001996:	655a      	str	r2, [r3, #84]	; 0x54
  hspi->State     = HAL_SPI_STATE_READY;
 8001998:	687b      	ldr	r3, [r7, #4]
 800199a:	2201      	movs	r2, #1
 800199c:	f883 2051 	strb.w	r2, [r3, #81]	; 0x51

  return HAL_OK;
 80019a0:	2300      	movs	r3, #0
}
 80019a2:	4618      	mov	r0, r3
 80019a4:	3708      	adds	r7, #8
 80019a6:	46bd      	mov	sp, r7
 80019a8:	bd80      	pop	{r7, pc}

080019aa <HAL_UART_Init>:
  * @param  huart  Pointer to a UART_HandleTypeDef structure that contains
  *                the configuration information for the specified UART module.
  * @retval HAL status
  */
HAL_StatusTypeDef HAL_UART_Init(UART_HandleTypeDef *huart)
{
 80019aa:	b580      	push	{r7, lr}
 80019ac:	b082      	sub	sp, #8
 80019ae:	af00      	add	r7, sp, #0
 80019b0:	6078      	str	r0, [r7, #4]
  /* Check the UART handle allocation */
  if (huart == NULL)
 80019b2:	687b      	ldr	r3, [r7, #4]
 80019b4:	2b00      	cmp	r3, #0
 80019b6:	d101      	bne.n	80019bc <HAL_UART_Init+0x12>
  {
    return HAL_ERROR;
 80019b8:	2301      	movs	r3, #1
 80019ba:	e03f      	b.n	8001a3c <HAL_UART_Init+0x92>
    assert_param(IS_UART_INSTANCE(huart->Instance));
  }
  assert_param(IS_UART_WORD_LENGTH(huart->Init.WordLength));
  assert_param(IS_UART_OVERSAMPLING(huart->Init.OverSampling));

  if (huart->gState == HAL_UART_STATE_RESET)
 80019bc:	687b      	ldr	r3, [r7, #4]
 80019be:	f893 303d 	ldrb.w	r3, [r3, #61]	; 0x3d
 80019c2:	b2db      	uxtb	r3, r3
 80019c4:	2b00      	cmp	r3, #0
 80019c6:	d106      	bne.n	80019d6 <HAL_UART_Init+0x2c>
  {
    /* Allocate lock resource and initialize it */
    huart->Lock = HAL_UNLOCKED;
 80019c8:	687b      	ldr	r3, [r7, #4]
 80019ca:	2200      	movs	r2, #0
 80019cc:	f883 203c 	strb.w	r2, [r3, #60]	; 0x3c

    /* Init the low level hardware */
    huart->MspInitCallback(huart);
#else
    /* Init the low level hardware : GPIO, CLOCK */
    HAL_UART_MspInit(huart);
 80019d0:	6878      	ldr	r0, [r7, #4]
 80019d2:	f7fe ff39 	bl	8000848 <HAL_UART_MspInit>
#endif /* (USE_HAL_UART_REGISTER_CALLBACKS) */
  }

  huart->gState = HAL_UART_STATE_BUSY;
 80019d6:	687b      	ldr	r3, [r7, #4]
 80019d8:	2224      	movs	r2, #36	; 0x24
 80019da:	f883 203d 	strb.w	r2, [r3, #61]	; 0x3d

  /* Disable the peripheral */
  __HAL_UART_DISABLE(huart);
 80019de:	687b      	ldr	r3, [r7, #4]
 80019e0:	681b      	ldr	r3, [r3, #0]
 80019e2:	68da      	ldr	r2, [r3, #12]
 80019e4:	687b      	ldr	r3, [r7, #4]
 80019e6:	681b      	ldr	r3, [r3, #0]
 80019e8:	f422 5200 	bic.w	r2, r2, #8192	; 0x2000
 80019ec:	60da      	str	r2, [r3, #12]

  /* Set the UART Communication parameters */
  UART_SetConfig(huart);
 80019ee:	6878      	ldr	r0, [r7, #4]
 80019f0:	f000 f928 	bl	8001c44 <UART_SetConfig>

  /* In asynchronous mode, the following bits must be kept cleared:
     - LINEN and CLKEN bits in the USART_CR2 register,
     - SCEN, HDSEL and IREN  bits in the USART_CR3 register.*/
  CLEAR_BIT(huart->Instance->CR2, (USART_CR2_LINEN | USART_CR2_CLKEN));
 80019f4:	687b      	ldr	r3, [r7, #4]
 80019f6:	681b      	ldr	r3, [r3, #0]
 80019f8:	691a      	ldr	r2, [r3, #16]
 80019fa:	687b      	ldr	r3, [r7, #4]
 80019fc:	681b      	ldr	r3, [r3, #0]
 80019fe:	f422 4290 	bic.w	r2, r2, #18432	; 0x4800
 8001a02:	611a      	str	r2, [r3, #16]
  CLEAR_BIT(huart->Instance->CR3, (USART_CR3_SCEN | USART_CR3_HDSEL | USART_CR3_IREN));
 8001a04:	687b      	ldr	r3, [r7, #4]
 8001a06:	681b      	ldr	r3, [r3, #0]
 8001a08:	695a      	ldr	r2, [r3, #20]
 8001a0a:	687b      	ldr	r3, [r7, #4]
 8001a0c:	681b      	ldr	r3, [r3, #0]
 8001a0e:	f022 022a 	bic.w	r2, r2, #42	; 0x2a
 8001a12:	615a      	str	r2, [r3, #20]

  /* Enable the peripheral */
  __HAL_UART_ENABLE(huart);
 8001a14:	687b      	ldr	r3, [r7, #4]
 8001a16:	681b      	ldr	r3, [r3, #0]
 8001a18:	68da      	ldr	r2, [r3, #12]
 8001a1a:	687b      	ldr	r3, [r7, #4]
 8001a1c:	681b      	ldr	r3, [r3, #0]
 8001a1e:	f442 5200 	orr.w	r2, r2, #8192	; 0x2000
 8001a22:	60da      	str	r2, [r3, #12]

  /* Initialize the UART state */
  huart->ErrorCode = HAL_UART_ERROR_NONE;
 8001a24:	687b      	ldr	r3, [r7, #4]
 8001a26:	2200      	movs	r2, #0
 8001a28:	641a      	str	r2, [r3, #64]	; 0x40
  huart->gState = HAL_UART_STATE_READY;
 8001a2a:	687b      	ldr	r3, [r7, #4]
 8001a2c:	2220      	movs	r2, #32
 8001a2e:	f883 203d 	strb.w	r2, [r3, #61]	; 0x3d
  huart->RxState = HAL_UART_STATE_READY;
 8001a32:	687b      	ldr	r3, [r7, #4]
 8001a34:	2220      	movs	r2, #32
 8001a36:	f883 203e 	strb.w	r2, [r3, #62]	; 0x3e

  return HAL_OK;
 8001a3a:	2300      	movs	r3, #0
}
 8001a3c:	4618      	mov	r0, r3
 8001a3e:	3708      	adds	r7, #8
 8001a40:	46bd      	mov	sp, r7
 8001a42:	bd80      	pop	{r7, pc}

08001a44 <HAL_UART_Transmit>:
  * @param  Size  Amount of data elements (u8 or u16) to be sent
  * @param  Timeout Timeout duration
  * @retval HAL status
  */
HAL_StatusTypeDef HAL_UART_Transmit(UART_HandleTypeDef *huart, uint8_t *pData, uint16_t Size, uint32_t Timeout)
{
 8001a44:	b580      	push	{r7, lr}
 8001a46:	b08a      	sub	sp, #40	; 0x28
 8001a48:	af02      	add	r7, sp, #8
 8001a4a:	60f8      	str	r0, [r7, #12]
 8001a4c:	60b9      	str	r1, [r7, #8]
 8001a4e:	603b      	str	r3, [r7, #0]
 8001a50:	4613      	mov	r3, r2
 8001a52:	80fb      	strh	r3, [r7, #6]
  uint8_t  *pdata8bits;
  uint16_t *pdata16bits;
  uint32_t tickstart = 0U;
 8001a54:	2300      	movs	r3, #0
 8001a56:	617b      	str	r3, [r7, #20]

  /* Check that a Tx process is not already ongoing */
  if (huart->gState == HAL_UART_STATE_READY)
 8001a58:	68fb      	ldr	r3, [r7, #12]
 8001a5a:	f893 303d 	ldrb.w	r3, [r3, #61]	; 0x3d
 8001a5e:	b2db      	uxtb	r3, r3
 8001a60:	2b20      	cmp	r3, #32
 8001a62:	d17c      	bne.n	8001b5e <HAL_UART_Transmit+0x11a>
  {
    if ((pData == NULL) || (Size == 0U))
 8001a64:	68bb      	ldr	r3, [r7, #8]
 8001a66:	2b00      	cmp	r3, #0
 8001a68:	d002      	beq.n	8001a70 <HAL_UART_Transmit+0x2c>
 8001a6a:	88fb      	ldrh	r3, [r7, #6]
 8001a6c:	2b00      	cmp	r3, #0
 8001a6e:	d101      	bne.n	8001a74 <HAL_UART_Transmit+0x30>
    {
      return  HAL_ERROR;
 8001a70:	2301      	movs	r3, #1
 8001a72:	e075      	b.n	8001b60 <HAL_UART_Transmit+0x11c>
    }

    /* Process Locked */
    __HAL_LOCK(huart);
 8001a74:	68fb      	ldr	r3, [r7, #12]
 8001a76:	f893 303c 	ldrb.w	r3, [r3, #60]	; 0x3c
 8001a7a:	2b01      	cmp	r3, #1
 8001a7c:	d101      	bne.n	8001a82 <HAL_UART_Transmit+0x3e>
 8001a7e:	2302      	movs	r3, #2
 8001a80:	e06e      	b.n	8001b60 <HAL_UART_Transmit+0x11c>
 8001a82:	68fb      	ldr	r3, [r7, #12]
 8001a84:	2201      	movs	r2, #1
 8001a86:	f883 203c 	strb.w	r2, [r3, #60]	; 0x3c

    huart->ErrorCode = HAL_UART_ERROR_NONE;
 8001a8a:	68fb      	ldr	r3, [r7, #12]
 8001a8c:	2200      	movs	r2, #0
 8001a8e:	641a      	str	r2, [r3, #64]	; 0x40
    huart->gState = HAL_UART_STATE_BUSY_TX;
 8001a90:	68fb      	ldr	r3, [r7, #12]
 8001a92:	2221      	movs	r2, #33	; 0x21
 8001a94:	f883 203d 	strb.w	r2, [r3, #61]	; 0x3d

    /* Init tickstart for timeout management */
    tickstart = HAL_GetTick();
 8001a98:	f7fe ffea 	bl	8000a70 <HAL_GetTick>
 8001a9c:	6178      	str	r0, [r7, #20]

    huart->TxXferSize = Size;
 8001a9e:	68fb      	ldr	r3, [r7, #12]
 8001aa0:	88fa      	ldrh	r2, [r7, #6]
 8001aa2:	849a      	strh	r2, [r3, #36]	; 0x24
    huart->TxXferCount = Size;
 8001aa4:	68fb      	ldr	r3, [r7, #12]
 8001aa6:	88fa      	ldrh	r2, [r7, #6]
 8001aa8:	84da      	strh	r2, [r3, #38]	; 0x26

    /* In case of 9bits/No Parity transfer, pData needs to be handled as a uint16_t pointer */
    if ((huart->Init.WordLength == UART_WORDLENGTH_9B) && (huart->Init.Parity == UART_PARITY_NONE))
 8001aaa:	68fb      	ldr	r3, [r7, #12]
 8001aac:	689b      	ldr	r3, [r3, #8]
 8001aae:	f5b3 5f80 	cmp.w	r3, #4096	; 0x1000
 8001ab2:	d108      	bne.n	8001ac6 <HAL_UART_Transmit+0x82>
 8001ab4:	68fb      	ldr	r3, [r7, #12]
 8001ab6:	691b      	ldr	r3, [r3, #16]
 8001ab8:	2b00      	cmp	r3, #0
 8001aba:	d104      	bne.n	8001ac6 <HAL_UART_Transmit+0x82>
    {
      pdata8bits  = NULL;
 8001abc:	2300      	movs	r3, #0
 8001abe:	61fb      	str	r3, [r7, #28]
      pdata16bits = (uint16_t *) pData;
 8001ac0:	68bb      	ldr	r3, [r7, #8]
 8001ac2:	61bb      	str	r3, [r7, #24]
 8001ac4:	e003      	b.n	8001ace <HAL_UART_Transmit+0x8a>
    }
    else
    {
      pdata8bits  = pData;
 8001ac6:	68bb      	ldr	r3, [r7, #8]
 8001ac8:	61fb      	str	r3, [r7, #28]
      pdata16bits = NULL;
 8001aca:	2300      	movs	r3, #0
 8001acc:	61bb      	str	r3, [r7, #24]
    }

    /* Process Unlocked */
    __HAL_UNLOCK(huart);
 8001ace:	68fb      	ldr	r3, [r7, #12]
 8001ad0:	2200      	movs	r2, #0
 8001ad2:	f883 203c 	strb.w	r2, [r3, #60]	; 0x3c

    while (huart->TxXferCount > 0U)
 8001ad6:	e02a      	b.n	8001b2e <HAL_UART_Transmit+0xea>
    {
      if (UART_WaitOnFlagUntilTimeout(huart, UART_FLAG_TXE, RESET, tickstart, Timeout) != HAL_OK)
 8001ad8:	683b      	ldr	r3, [r7, #0]
 8001ada:	9300      	str	r3, [sp, #0]
 8001adc:	697b      	ldr	r3, [r7, #20]
 8001ade:	2200      	movs	r2, #0
 8001ae0:	2180      	movs	r1, #128	; 0x80
 8001ae2:	68f8      	ldr	r0, [r7, #12]
 8001ae4:	f000 f840 	bl	8001b68 <UART_WaitOnFlagUntilTimeout>
 8001ae8:	4603      	mov	r3, r0
 8001aea:	2b00      	cmp	r3, #0
 8001aec:	d001      	beq.n	8001af2 <HAL_UART_Transmit+0xae>
      {
        return HAL_TIMEOUT;
 8001aee:	2303      	movs	r3, #3
 8001af0:	e036      	b.n	8001b60 <HAL_UART_Transmit+0x11c>
      }
      if (pdata8bits == NULL)
 8001af2:	69fb      	ldr	r3, [r7, #28]
 8001af4:	2b00      	cmp	r3, #0
 8001af6:	d10b      	bne.n	8001b10 <HAL_UART_Transmit+0xcc>
      {
        huart->Instance->DR = (uint16_t)(*pdata16bits & 0x01FFU);
 8001af8:	69bb      	ldr	r3, [r7, #24]
 8001afa:	881b      	ldrh	r3, [r3, #0]
 8001afc:	461a      	mov	r2, r3
 8001afe:	68fb      	ldr	r3, [r7, #12]
 8001b00:	681b      	ldr	r3, [r3, #0]
 8001b02:	f3c2 0208 	ubfx	r2, r2, #0, #9
 8001b06:	605a      	str	r2, [r3, #4]
        pdata16bits++;
 8001b08:	69bb      	ldr	r3, [r7, #24]
 8001b0a:	3302      	adds	r3, #2
 8001b0c:	61bb      	str	r3, [r7, #24]
 8001b0e:	e007      	b.n	8001b20 <HAL_UART_Transmit+0xdc>
      }
      else
      {
        huart->Instance->DR = (uint8_t)(*pdata8bits & 0xFFU);
 8001b10:	69fb      	ldr	r3, [r7, #28]
 8001b12:	781a      	ldrb	r2, [r3, #0]
 8001b14:	68fb      	ldr	r3, [r7, #12]
 8001b16:	681b      	ldr	r3, [r3, #0]
 8001b18:	605a      	str	r2, [r3, #4]
        pdata8bits++;
 8001b1a:	69fb      	ldr	r3, [r7, #28]
 8001b1c:	3301      	adds	r3, #1
 8001b1e:	61fb      	str	r3, [r7, #28]
      }
      huart->TxXferCount--;
 8001b20:	68fb      	ldr	r3, [r7, #12]
 8001b22:	8cdb      	ldrh	r3, [r3, #38]	; 0x26
 8001b24:	b29b      	uxth	r3, r3
 8001b26:	3b01      	subs	r3, #1
 8001b28:	b29a      	uxth	r2, r3
 8001b2a:	68fb      	ldr	r3, [r7, #12]
 8001b2c:	84da      	strh	r2, [r3, #38]	; 0x26
    while (huart->TxXferCount > 0U)
 8001b2e:	68fb      	ldr	r3, [r7, #12]
 8001b30:	8cdb      	ldrh	r3, [r3, #38]	; 0x26
 8001b32:	b29b      	uxth	r3, r3
 8001b34:	2b00      	cmp	r3, #0
 8001b36:	d1cf      	bne.n	8001ad8 <HAL_UART_Transmit+0x94>
    }

    if (UART_WaitOnFlagUntilTimeout(huart, UART_FLAG_TC, RESET, tickstart, Timeout) != HAL_OK)
 8001b38:	683b      	ldr	r3, [r7, #0]
 8001b3a:	9300      	str	r3, [sp, #0]
 8001b3c:	697b      	ldr	r3, [r7, #20]
 8001b3e:	2200      	movs	r2, #0
 8001b40:	2140      	movs	r1, #64	; 0x40
 8001b42:	68f8      	ldr	r0, [r7, #12]
 8001b44:	f000 f810 	bl	8001b68 <UART_WaitOnFlagUntilTimeout>
 8001b48:	4603      	mov	r3, r0
 8001b4a:	2b00      	cmp	r3, #0
 8001b4c:	d001      	beq.n	8001b52 <HAL_UART_Transmit+0x10e>
    {
      return HAL_TIMEOUT;
 8001b4e:	2303      	movs	r3, #3
 8001b50:	e006      	b.n	8001b60 <HAL_UART_Transmit+0x11c>
    }

    /* At end of Tx process, restore huart->gState to Ready */
    huart->gState = HAL_UART_STATE_READY;
 8001b52:	68fb      	ldr	r3, [r7, #12]
 8001b54:	2220      	movs	r2, #32
 8001b56:	f883 203d 	strb.w	r2, [r3, #61]	; 0x3d

    return HAL_OK;
 8001b5a:	2300      	movs	r3, #0
 8001b5c:	e000      	b.n	8001b60 <HAL_UART_Transmit+0x11c>
  }
  else
  {
    return HAL_BUSY;
 8001b5e:	2302      	movs	r3, #2
  }
}
 8001b60:	4618      	mov	r0, r3
 8001b62:	3720      	adds	r7, #32
 8001b64:	46bd      	mov	sp, r7
 8001b66:	bd80      	pop	{r7, pc}

08001b68 <UART_WaitOnFlagUntilTimeout>:
  * @param  Timeout Timeout duration
  * @retval HAL status
  */
static HAL_StatusTypeDef UART_WaitOnFlagUntilTimeout(UART_HandleTypeDef *huart, uint32_t Flag, FlagStatus Status,
                                                     uint32_t Tickstart, uint32_t Timeout)
{
 8001b68:	b580      	push	{r7, lr}
 8001b6a:	b090      	sub	sp, #64	; 0x40
 8001b6c:	af00      	add	r7, sp, #0
 8001b6e:	60f8      	str	r0, [r7, #12]
 8001b70:	60b9      	str	r1, [r7, #8]
 8001b72:	603b      	str	r3, [r7, #0]
 8001b74:	4613      	mov	r3, r2
 8001b76:	71fb      	strb	r3, [r7, #7]
  /* Wait until flag is set */
  while ((__HAL_UART_GET_FLAG(huart, Flag) ? SET : RESET) == Status)
 8001b78:	e050      	b.n	8001c1c <UART_WaitOnFlagUntilTimeout+0xb4>
  {
    /* Check for the Timeout */
    if (Timeout != HAL_MAX_DELAY)
 8001b7a:	6cbb      	ldr	r3, [r7, #72]	; 0x48
 8001b7c:	f1b3 3fff 	cmp.w	r3, #4294967295
 8001b80:	d04c      	beq.n	8001c1c <UART_WaitOnFlagUntilTimeout+0xb4>
    {
      if ((Timeout == 0U) || ((HAL_GetTick() - Tickstart) > Timeout))
 8001b82:	6cbb      	ldr	r3, [r7, #72]	; 0x48
 8001b84:	2b00      	cmp	r3, #0
 8001b86:	d007      	beq.n	8001b98 <UART_WaitOnFlagUntilTimeout+0x30>
 8001b88:	f7fe ff72 	bl	8000a70 <HAL_GetTick>
 8001b8c:	4602      	mov	r2, r0
 8001b8e:	683b      	ldr	r3, [r7, #0]
 8001b90:	1ad3      	subs	r3, r2, r3
 8001b92:	6cba      	ldr	r2, [r7, #72]	; 0x48
 8001b94:	429a      	cmp	r2, r3
 8001b96:	d241      	bcs.n	8001c1c <UART_WaitOnFlagUntilTimeout+0xb4>
      {
        /* Disable TXE, RXNE, PE and ERR (Frame error, noise error, overrun error) interrupts for the interrupt process */
        ATOMIC_CLEAR_BIT(huart->Instance->CR1, (USART_CR1_RXNEIE | USART_CR1_PEIE | USART_CR1_TXEIE));
 8001b98:	68fb      	ldr	r3, [r7, #12]
 8001b9a:	681b      	ldr	r3, [r3, #0]
 8001b9c:	330c      	adds	r3, #12
 8001b9e:	62bb      	str	r3, [r7, #40]	; 0x28
 */
__STATIC_FORCEINLINE uint32_t __LDREXW(volatile uint32_t *addr)
{
    uint32_t result;

   __ASM volatile ("ldrex %0, %1" : "=r" (result) : "Q" (*addr) );
 8001ba0:	6abb      	ldr	r3, [r7, #40]	; 0x28
 8001ba2:	e853 3f00 	ldrex	r3, [r3]
 8001ba6:	627b      	str	r3, [r7, #36]	; 0x24
   return(result);
 8001ba8:	6a7b      	ldr	r3, [r7, #36]	; 0x24
 8001baa:	f423 73d0 	bic.w	r3, r3, #416	; 0x1a0
 8001bae:	63fb      	str	r3, [r7, #60]	; 0x3c
 8001bb0:	68fb      	ldr	r3, [r7, #12]
 8001bb2:	681b      	ldr	r3, [r3, #0]
 8001bb4:	330c      	adds	r3, #12
 8001bb6:	6bfa      	ldr	r2, [r7, #60]	; 0x3c
 8001bb8:	637a      	str	r2, [r7, #52]	; 0x34
 8001bba:	633b      	str	r3, [r7, #48]	; 0x30
 */
__STATIC_FORCEINLINE uint32_t __STREXW(uint32_t value, volatile uint32_t *addr)
{
   uint32_t result;

   __ASM volatile ("strex %0, %2, %1" : "=&r" (result), "=Q" (*addr) : "r" (value) );
 8001bbc:	6b39      	ldr	r1, [r7, #48]	; 0x30
 8001bbe:	6b7a      	ldr	r2, [r7, #52]	; 0x34
 8001bc0:	e841 2300 	strex	r3, r2, [r1]
 8001bc4:	62fb      	str	r3, [r7, #44]	; 0x2c
   return(result);
 8001bc6:	6afb      	ldr	r3, [r7, #44]	; 0x2c
 8001bc8:	2b00      	cmp	r3, #0
 8001bca:	d1e5      	bne.n	8001b98 <UART_WaitOnFlagUntilTimeout+0x30>
        ATOMIC_CLEAR_BIT(huart->Instance->CR3, USART_CR3_EIE);
 8001bcc:	68fb      	ldr	r3, [r7, #12]
 8001bce:	681b      	ldr	r3, [r3, #0]
 8001bd0:	3314      	adds	r3, #20
 8001bd2:	617b      	str	r3, [r7, #20]
   __ASM volatile ("ldrex %0, %1" : "=r" (result) : "Q" (*addr) );
 8001bd4:	697b      	ldr	r3, [r7, #20]
 8001bd6:	e853 3f00 	ldrex	r3, [r3]
 8001bda:	613b      	str	r3, [r7, #16]
   return(result);
 8001bdc:	693b      	ldr	r3, [r7, #16]
 8001bde:	f023 0301 	bic.w	r3, r3, #1
 8001be2:	63bb      	str	r3, [r7, #56]	; 0x38
 8001be4:	68fb      	ldr	r3, [r7, #12]
 8001be6:	681b      	ldr	r3, [r3, #0]
 8001be8:	3314      	adds	r3, #20
 8001bea:	6bba      	ldr	r2, [r7, #56]	; 0x38
 8001bec:	623a      	str	r2, [r7, #32]
 8001bee:	61fb      	str	r3, [r7, #28]
   __ASM volatile ("strex %0, %2, %1" : "=&r" (result), "=Q" (*addr) : "r" (value) );
 8001bf0:	69f9      	ldr	r1, [r7, #28]
 8001bf2:	6a3a      	ldr	r2, [r7, #32]
 8001bf4:	e841 2300 	strex	r3, r2, [r1]
 8001bf8:	61bb      	str	r3, [r7, #24]
   return(result);
 8001bfa:	69bb      	ldr	r3, [r7, #24]
 8001bfc:	2b00      	cmp	r3, #0
 8001bfe:	d1e5      	bne.n	8001bcc <UART_WaitOnFlagUntilTimeout+0x64>

        huart->gState  = HAL_UART_STATE_READY;
 8001c00:	68fb      	ldr	r3, [r7, #12]
 8001c02:	2220      	movs	r2, #32
 8001c04:	f883 203d 	strb.w	r2, [r3, #61]	; 0x3d
        huart->RxState = HAL_UART_STATE_READY;
 8001c08:	68fb      	ldr	r3, [r7, #12]
 8001c0a:	2220      	movs	r2, #32
 8001c0c:	f883 203e 	strb.w	r2, [r3, #62]	; 0x3e

        /* Process Unlocked */
        __HAL_UNLOCK(huart);
 8001c10:	68fb      	ldr	r3, [r7, #12]
 8001c12:	2200      	movs	r2, #0
 8001c14:	f883 203c 	strb.w	r2, [r3, #60]	; 0x3c

        return HAL_TIMEOUT;
 8001c18:	2303      	movs	r3, #3
 8001c1a:	e00f      	b.n	8001c3c <UART_WaitOnFlagUntilTimeout+0xd4>
  while ((__HAL_UART_GET_FLAG(huart, Flag) ? SET : RESET) == Status)
 8001c1c:	68fb      	ldr	r3, [r7, #12]
 8001c1e:	681b      	ldr	r3, [r3, #0]
 8001c20:	681a      	ldr	r2, [r3, #0]
 8001c22:	68bb      	ldr	r3, [r7, #8]
 8001c24:	4013      	ands	r3, r2
 8001c26:	68ba      	ldr	r2, [r7, #8]
 8001c28:	429a      	cmp	r2, r3
 8001c2a:	bf0c      	ite	eq
 8001c2c:	2301      	moveq	r3, #1
 8001c2e:	2300      	movne	r3, #0
 8001c30:	b2db      	uxtb	r3, r3
 8001c32:	461a      	mov	r2, r3
 8001c34:	79fb      	ldrb	r3, [r7, #7]
 8001c36:	429a      	cmp	r2, r3
 8001c38:	d09f      	beq.n	8001b7a <UART_WaitOnFlagUntilTimeout+0x12>
      }
    }
  }
  return HAL_OK;
 8001c3a:	2300      	movs	r3, #0
}
 8001c3c:	4618      	mov	r0, r3
 8001c3e:	3740      	adds	r7, #64	; 0x40
 8001c40:	46bd      	mov	sp, r7
 8001c42:	bd80      	pop	{r7, pc}

08001c44 <UART_SetConfig>:
  * @param  huart  Pointer to a UART_HandleTypeDef structure that contains
  *                the configuration information for the specified UART module.
  * @retval None
  */
static void UART_SetConfig(UART_HandleTypeDef *huart)
{
 8001c44:	e92d 4ff0 	stmdb	sp!, {r4, r5, r6, r7, r8, r9, sl, fp, lr}
 8001c48:	b09f      	sub	sp, #124	; 0x7c
 8001c4a:	af00      	add	r7, sp, #0
 8001c4c:	66f8      	str	r0, [r7, #108]	; 0x6c
  assert_param(IS_UART_MODE(huart->Init.Mode));

  /*-------------------------- USART CR2 Configuration -----------------------*/
  /* Configure the UART Stop Bits: Set STOP[13:12] bits
     according to huart->Init.StopBits value */
  MODIFY_REG(huart->Instance->CR2, USART_CR2_STOP, huart->Init.StopBits);
 8001c4e:	6efb      	ldr	r3, [r7, #108]	; 0x6c
 8001c50:	681b      	ldr	r3, [r3, #0]
 8001c52:	691b      	ldr	r3, [r3, #16]
 8001c54:	f423 5040 	bic.w	r0, r3, #12288	; 0x3000
 8001c58:	6efb      	ldr	r3, [r7, #108]	; 0x6c
 8001c5a:	68d9      	ldr	r1, [r3, #12]
 8001c5c:	6efb      	ldr	r3, [r7, #108]	; 0x6c
 8001c5e:	681a      	ldr	r2, [r3, #0]
 8001c60:	ea40 0301 	orr.w	r3, r0, r1
 8001c64:	6113      	str	r3, [r2, #16]
     Set the M bits according to huart->Init.WordLength value
     Set PCE and PS bits according to huart->Init.Parity value
     Set TE and RE bits according to huart->Init.Mode value
     Set OVER8 bit according to huart->Init.OverSampling value */

  tmpreg = (uint32_t)huart->Init.WordLength | huart->Init.Parity | huart->Init.Mode | huart->Init.OverSampling;
 8001c66:	6efb      	ldr	r3, [r7, #108]	; 0x6c
 8001c68:	689a      	ldr	r2, [r3, #8]
 8001c6a:	6efb      	ldr	r3, [r7, #108]	; 0x6c
 8001c6c:	691b      	ldr	r3, [r3, #16]
 8001c6e:	431a      	orrs	r2, r3
 8001c70:	6efb      	ldr	r3, [r7, #108]	; 0x6c
 8001c72:	695b      	ldr	r3, [r3, #20]
 8001c74:	431a      	orrs	r2, r3
 8001c76:	6efb      	ldr	r3, [r7, #108]	; 0x6c
 8001c78:	69db      	ldr	r3, [r3, #28]
 8001c7a:	4313      	orrs	r3, r2
 8001c7c:	673b      	str	r3, [r7, #112]	; 0x70
  MODIFY_REG(huart->Instance->CR1,
 8001c7e:	6efb      	ldr	r3, [r7, #108]	; 0x6c
 8001c80:	681b      	ldr	r3, [r3, #0]
 8001c82:	68db      	ldr	r3, [r3, #12]
 8001c84:	f423 4116 	bic.w	r1, r3, #38400	; 0x9600
 8001c88:	f021 010c 	bic.w	r1, r1, #12
 8001c8c:	6efb      	ldr	r3, [r7, #108]	; 0x6c
 8001c8e:	681a      	ldr	r2, [r3, #0]
 8001c90:	6f3b      	ldr	r3, [r7, #112]	; 0x70
 8001c92:	430b      	orrs	r3, r1
 8001c94:	60d3      	str	r3, [r2, #12]
             (uint32_t)(USART_CR1_M | USART_CR1_PCE | USART_CR1_PS | USART_CR1_TE | USART_CR1_RE | USART_CR1_OVER8),
             tmpreg);

  /*-------------------------- USART CR3 Configuration -----------------------*/
  /* Configure the UART HFC: Set CTSE and RTSE bits according to huart->Init.HwFlowCtl value */
  MODIFY_REG(huart->Instance->CR3, (USART_CR3_RTSE | USART_CR3_CTSE), huart->Init.HwFlowCtl);
 8001c96:	6efb      	ldr	r3, [r7, #108]	; 0x6c
 8001c98:	681b      	ldr	r3, [r3, #0]
 8001c9a:	695b      	ldr	r3, [r3, #20]
 8001c9c:	f423 7040 	bic.w	r0, r3, #768	; 0x300
 8001ca0:	6efb      	ldr	r3, [r7, #108]	; 0x6c
 8001ca2:	6999      	ldr	r1, [r3, #24]
 8001ca4:	6efb      	ldr	r3, [r7, #108]	; 0x6c
 8001ca6:	681a      	ldr	r2, [r3, #0]
 8001ca8:	ea40 0301 	orr.w	r3, r0, r1
 8001cac:	6153      	str	r3, [r2, #20]
    if ((huart->Instance == USART1) || (huart->Instance == USART6) || (huart->Instance == UART9) || (huart->Instance == UART10))
    {
      pclk = HAL_RCC_GetPCLK2Freq();
    }
#elif defined(USART6)
    if ((huart->Instance == USART1) || (huart->Instance == USART6))
 8001cae:	6efb      	ldr	r3, [r7, #108]	; 0x6c
 8001cb0:	681a      	ldr	r2, [r3, #0]
 8001cb2:	4bc5      	ldr	r3, [pc, #788]	; (8001fc8 <UART_SetConfig+0x384>)
 8001cb4:	429a      	cmp	r2, r3
 8001cb6:	d004      	beq.n	8001cc2 <UART_SetConfig+0x7e>
 8001cb8:	6efb      	ldr	r3, [r7, #108]	; 0x6c
 8001cba:	681a      	ldr	r2, [r3, #0]
 8001cbc:	4bc3      	ldr	r3, [pc, #780]	; (8001fcc <UART_SetConfig+0x388>)
 8001cbe:	429a      	cmp	r2, r3
 8001cc0:	d103      	bne.n	8001cca <UART_SetConfig+0x86>
    {
      pclk = HAL_RCC_GetPCLK2Freq();
 8001cc2:	f7ff fdd5 	bl	8001870 <HAL_RCC_GetPCLK2Freq>
 8001cc6:	6778      	str	r0, [r7, #116]	; 0x74
 8001cc8:	e002      	b.n	8001cd0 <UART_SetConfig+0x8c>
      pclk = HAL_RCC_GetPCLK2Freq();
    }
#endif /* USART6 */
    else
    {
      pclk = HAL_RCC_GetPCLK1Freq();
 8001cca:	f7ff fdbd 	bl	8001848 <HAL_RCC_GetPCLK1Freq>
 8001cce:	6778      	str	r0, [r7, #116]	; 0x74
    }
  /*-------------------------- USART BRR Configuration ---------------------*/
  if (huart->Init.OverSampling == UART_OVERSAMPLING_8)
 8001cd0:	6efb      	ldr	r3, [r7, #108]	; 0x6c
 8001cd2:	69db      	ldr	r3, [r3, #28]
 8001cd4:	f5b3 4f00 	cmp.w	r3, #32768	; 0x8000
 8001cd8:	f040 80b6 	bne.w	8001e48 <UART_SetConfig+0x204>
  {
    huart->Instance->BRR = UART_BRR_SAMPLING8(pclk, huart->Init.BaudRate);
 8001cdc:	6f7b      	ldr	r3, [r7, #116]	; 0x74
 8001cde:	461c      	mov	r4, r3
 8001ce0:	f04f 0500 	mov.w	r5, #0
 8001ce4:	4622      	mov	r2, r4
 8001ce6:	462b      	mov	r3, r5
 8001ce8:	1891      	adds	r1, r2, r2
 8001cea:	6439      	str	r1, [r7, #64]	; 0x40
 8001cec:	415b      	adcs	r3, r3
 8001cee:	647b      	str	r3, [r7, #68]	; 0x44
 8001cf0:	e9d7 2310 	ldrd	r2, r3, [r7, #64]	; 0x40
 8001cf4:	1912      	adds	r2, r2, r4
 8001cf6:	eb45 0303 	adc.w	r3, r5, r3
 8001cfa:	f04f 0000 	mov.w	r0, #0
 8001cfe:	f04f 0100 	mov.w	r1, #0
 8001d02:	00d9      	lsls	r1, r3, #3
 8001d04:	ea41 7152 	orr.w	r1, r1, r2, lsr #29
 8001d08:	00d0      	lsls	r0, r2, #3
 8001d0a:	4602      	mov	r2, r0
 8001d0c:	460b      	mov	r3, r1
 8001d0e:	1911      	adds	r1, r2, r4
 8001d10:	6639      	str	r1, [r7, #96]	; 0x60
 8001d12:	416b      	adcs	r3, r5
 8001d14:	667b      	str	r3, [r7, #100]	; 0x64
 8001d16:	6efb      	ldr	r3, [r7, #108]	; 0x6c
 8001d18:	685b      	ldr	r3, [r3, #4]
 8001d1a:	461a      	mov	r2, r3
 8001d1c:	f04f 0300 	mov.w	r3, #0
 8001d20:	1891      	adds	r1, r2, r2
 8001d22:	63b9      	str	r1, [r7, #56]	; 0x38
 8001d24:	415b      	adcs	r3, r3
 8001d26:	63fb      	str	r3, [r7, #60]	; 0x3c
 8001d28:	e9d7 230e 	ldrd	r2, r3, [r7, #56]	; 0x38
 8001d2c:	e9d7 0118 	ldrd	r0, r1, [r7, #96]	; 0x60
 8001d30:	f7fe fa4a 	bl	80001c8 <__aeabi_uldivmod>
 8001d34:	4602      	mov	r2, r0
 8001d36:	460b      	mov	r3, r1
 8001d38:	4ba5      	ldr	r3, [pc, #660]	; (8001fd0 <UART_SetConfig+0x38c>)
 8001d3a:	fba3 2302 	umull	r2, r3, r3, r2
 8001d3e:	095b      	lsrs	r3, r3, #5
 8001d40:	011e      	lsls	r6, r3, #4
 8001d42:	6f7b      	ldr	r3, [r7, #116]	; 0x74
 8001d44:	461c      	mov	r4, r3
 8001d46:	f04f 0500 	mov.w	r5, #0
 8001d4a:	4622      	mov	r2, r4
 8001d4c:	462b      	mov	r3, r5
 8001d4e:	1891      	adds	r1, r2, r2
 8001d50:	6339      	str	r1, [r7, #48]	; 0x30
 8001d52:	415b      	adcs	r3, r3
 8001d54:	637b      	str	r3, [r7, #52]	; 0x34
 8001d56:	e9d7 230c 	ldrd	r2, r3, [r7, #48]	; 0x30
 8001d5a:	1912      	adds	r2, r2, r4
 8001d5c:	eb45 0303 	adc.w	r3, r5, r3
 8001d60:	f04f 0000 	mov.w	r0, #0
 8001d64:	f04f 0100 	mov.w	r1, #0
 8001d68:	00d9      	lsls	r1, r3, #3
 8001d6a:	ea41 7152 	orr.w	r1, r1, r2, lsr #29
 8001d6e:	00d0      	lsls	r0, r2, #3
 8001d70:	4602      	mov	r2, r0
 8001d72:	460b      	mov	r3, r1
 8001d74:	1911      	adds	r1, r2, r4
 8001d76:	65b9      	str	r1, [r7, #88]	; 0x58
 8001d78:	416b      	adcs	r3, r5
 8001d7a:	65fb      	str	r3, [r7, #92]	; 0x5c
 8001d7c:	6efb      	ldr	r3, [r7, #108]	; 0x6c
 8001d7e:	685b      	ldr	r3, [r3, #4]
 8001d80:	461a      	mov	r2, r3
 8001d82:	f04f 0300 	mov.w	r3, #0
 8001d86:	1891      	adds	r1, r2, r2
 8001d88:	62b9      	str	r1, [r7, #40]	; 0x28
 8001d8a:	415b      	adcs	r3, r3
 8001d8c:	62fb      	str	r3, [r7, #44]	; 0x2c
 8001d8e:	e9d7 230a 	ldrd	r2, r3, [r7, #40]	; 0x28
 8001d92:	e9d7 0116 	ldrd	r0, r1, [r7, #88]	; 0x58
 8001d96:	f7fe fa17 	bl	80001c8 <__aeabi_uldivmod>
 8001d9a:	4602      	mov	r2, r0
 8001d9c:	460b      	mov	r3, r1
 8001d9e:	4b8c      	ldr	r3, [pc, #560]	; (8001fd0 <UART_SetConfig+0x38c>)
 8001da0:	fba3 1302 	umull	r1, r3, r3, r2
 8001da4:	095b      	lsrs	r3, r3, #5
 8001da6:	2164      	movs	r1, #100	; 0x64
 8001da8:	fb01 f303 	mul.w	r3, r1, r3
 8001dac:	1ad3      	subs	r3, r2, r3
 8001dae:	00db      	lsls	r3, r3, #3
 8001db0:	3332      	adds	r3, #50	; 0x32
 8001db2:	4a87      	ldr	r2, [pc, #540]	; (8001fd0 <UART_SetConfig+0x38c>)
 8001db4:	fba2 2303 	umull	r2, r3, r2, r3
 8001db8:	095b      	lsrs	r3, r3, #5
 8001dba:	005b      	lsls	r3, r3, #1
 8001dbc:	f403 73f8 	and.w	r3, r3, #496	; 0x1f0
 8001dc0:	441e      	add	r6, r3
 8001dc2:	6f7b      	ldr	r3, [r7, #116]	; 0x74
 8001dc4:	4618      	mov	r0, r3
 8001dc6:	f04f 0100 	mov.w	r1, #0
 8001dca:	4602      	mov	r2, r0
 8001dcc:	460b      	mov	r3, r1
 8001dce:	1894      	adds	r4, r2, r2
 8001dd0:	623c      	str	r4, [r7, #32]
 8001dd2:	415b      	adcs	r3, r3
 8001dd4:	627b      	str	r3, [r7, #36]	; 0x24
 8001dd6:	e9d7 2308 	ldrd	r2, r3, [r7, #32]
 8001dda:	1812      	adds	r2, r2, r0
 8001ddc:	eb41 0303 	adc.w	r3, r1, r3
 8001de0:	f04f 0400 	mov.w	r4, #0
 8001de4:	f04f 0500 	mov.w	r5, #0
 8001de8:	00dd      	lsls	r5, r3, #3
 8001dea:	ea45 7552 	orr.w	r5, r5, r2, lsr #29
 8001dee:	00d4      	lsls	r4, r2, #3
 8001df0:	4622      	mov	r2, r4
 8001df2:	462b      	mov	r3, r5
 8001df4:	1814      	adds	r4, r2, r0
 8001df6:	653c      	str	r4, [r7, #80]	; 0x50
 8001df8:	414b      	adcs	r3, r1
 8001dfa:	657b      	str	r3, [r7, #84]	; 0x54
 8001dfc:	6efb      	ldr	r3, [r7, #108]	; 0x6c
 8001dfe:	685b      	ldr	r3, [r3, #4]
 8001e00:	461a      	mov	r2, r3
 8001e02:	f04f 0300 	mov.w	r3, #0
 8001e06:	1891      	adds	r1, r2, r2
 8001e08:	61b9      	str	r1, [r7, #24]
 8001e0a:	415b      	adcs	r3, r3
 8001e0c:	61fb      	str	r3, [r7, #28]
 8001e0e:	e9d7 2306 	ldrd	r2, r3, [r7, #24]
 8001e12:	e9d7 0114 	ldrd	r0, r1, [r7, #80]	; 0x50
 8001e16:	f7fe f9d7 	bl	80001c8 <__aeabi_uldivmod>
 8001e1a:	4602      	mov	r2, r0
 8001e1c:	460b      	mov	r3, r1
 8001e1e:	4b6c      	ldr	r3, [pc, #432]	; (8001fd0 <UART_SetConfig+0x38c>)
 8001e20:	fba3 1302 	umull	r1, r3, r3, r2
 8001e24:	095b      	lsrs	r3, r3, #5
 8001e26:	2164      	movs	r1, #100	; 0x64
 8001e28:	fb01 f303 	mul.w	r3, r1, r3
 8001e2c:	1ad3      	subs	r3, r2, r3
 8001e2e:	00db      	lsls	r3, r3, #3
 8001e30:	3332      	adds	r3, #50	; 0x32
 8001e32:	4a67      	ldr	r2, [pc, #412]	; (8001fd0 <UART_SetConfig+0x38c>)
 8001e34:	fba2 2303 	umull	r2, r3, r2, r3
 8001e38:	095b      	lsrs	r3, r3, #5
 8001e3a:	f003 0207 	and.w	r2, r3, #7
 8001e3e:	6efb      	ldr	r3, [r7, #108]	; 0x6c
 8001e40:	681b      	ldr	r3, [r3, #0]
 8001e42:	4432      	add	r2, r6
 8001e44:	609a      	str	r2, [r3, #8]
  }
  else
  {
    huart->Instance->BRR = UART_BRR_SAMPLING16(pclk, huart->Init.BaudRate);
  }
}
 8001e46:	e0b9      	b.n	8001fbc <UART_SetConfig+0x378>
    huart->Instance->BRR = UART_BRR_SAMPLING16(pclk, huart->Init.BaudRate);
 8001e48:	6f7b      	ldr	r3, [r7, #116]	; 0x74
 8001e4a:	461c      	mov	r4, r3
 8001e4c:	f04f 0500 	mov.w	r5, #0
 8001e50:	4622      	mov	r2, r4
 8001e52:	462b      	mov	r3, r5
 8001e54:	1891      	adds	r1, r2, r2
 8001e56:	6139      	str	r1, [r7, #16]
 8001e58:	415b      	adcs	r3, r3
 8001e5a:	617b      	str	r3, [r7, #20]
 8001e5c:	e9d7 2304 	ldrd	r2, r3, [r7, #16]
 8001e60:	1912      	adds	r2, r2, r4
 8001e62:	eb45 0303 	adc.w	r3, r5, r3
 8001e66:	f04f 0000 	mov.w	r0, #0
 8001e6a:	f04f 0100 	mov.w	r1, #0
 8001e6e:	00d9      	lsls	r1, r3, #3
 8001e70:	ea41 7152 	orr.w	r1, r1, r2, lsr #29
 8001e74:	00d0      	lsls	r0, r2, #3
 8001e76:	4602      	mov	r2, r0
 8001e78:	460b      	mov	r3, r1
 8001e7a:	eb12 0804 	adds.w	r8, r2, r4
 8001e7e:	eb43 0905 	adc.w	r9, r3, r5
 8001e82:	6efb      	ldr	r3, [r7, #108]	; 0x6c
 8001e84:	685b      	ldr	r3, [r3, #4]
 8001e86:	4618      	mov	r0, r3
 8001e88:	f04f 0100 	mov.w	r1, #0
 8001e8c:	f04f 0200 	mov.w	r2, #0
 8001e90:	f04f 0300 	mov.w	r3, #0
 8001e94:	008b      	lsls	r3, r1, #2
 8001e96:	ea43 7390 	orr.w	r3, r3, r0, lsr #30
 8001e9a:	0082      	lsls	r2, r0, #2
 8001e9c:	4640      	mov	r0, r8
 8001e9e:	4649      	mov	r1, r9
 8001ea0:	f7fe f992 	bl	80001c8 <__aeabi_uldivmod>
 8001ea4:	4602      	mov	r2, r0
 8001ea6:	460b      	mov	r3, r1
 8001ea8:	4b49      	ldr	r3, [pc, #292]	; (8001fd0 <UART_SetConfig+0x38c>)
 8001eaa:	fba3 2302 	umull	r2, r3, r3, r2
 8001eae:	095b      	lsrs	r3, r3, #5
 8001eb0:	011e      	lsls	r6, r3, #4
 8001eb2:	6f7b      	ldr	r3, [r7, #116]	; 0x74
 8001eb4:	4618      	mov	r0, r3
 8001eb6:	f04f 0100 	mov.w	r1, #0
 8001eba:	4602      	mov	r2, r0
 8001ebc:	460b      	mov	r3, r1
 8001ebe:	1894      	adds	r4, r2, r2
 8001ec0:	60bc      	str	r4, [r7, #8]
 8001ec2:	415b      	adcs	r3, r3
 8001ec4:	60fb      	str	r3, [r7, #12]
 8001ec6:	e9d7 2302 	ldrd	r2, r3, [r7, #8]
 8001eca:	1812      	adds	r2, r2, r0
 8001ecc:	eb41 0303 	adc.w	r3, r1, r3
 8001ed0:	f04f 0400 	mov.w	r4, #0
 8001ed4:	f04f 0500 	mov.w	r5, #0
 8001ed8:	00dd      	lsls	r5, r3, #3
 8001eda:	ea45 7552 	orr.w	r5, r5, r2, lsr #29
 8001ede:	00d4      	lsls	r4, r2, #3
 8001ee0:	4622      	mov	r2, r4
 8001ee2:	462b      	mov	r3, r5
 8001ee4:	1814      	adds	r4, r2, r0
 8001ee6:	64bc      	str	r4, [r7, #72]	; 0x48
 8001ee8:	414b      	adcs	r3, r1
 8001eea:	64fb      	str	r3, [r7, #76]	; 0x4c
 8001eec:	6efb      	ldr	r3, [r7, #108]	; 0x6c
 8001eee:	685b      	ldr	r3, [r3, #4]
 8001ef0:	4618      	mov	r0, r3
 8001ef2:	f04f 0100 	mov.w	r1, #0
 8001ef6:	f04f 0200 	mov.w	r2, #0
 8001efa:	f04f 0300 	mov.w	r3, #0
 8001efe:	008b      	lsls	r3, r1, #2
 8001f00:	ea43 7390 	orr.w	r3, r3, r0, lsr #30
 8001f04:	0082      	lsls	r2, r0, #2
 8001f06:	e9d7 0112 	ldrd	r0, r1, [r7, #72]	; 0x48
 8001f0a:	f7fe f95d 	bl	80001c8 <__aeabi_uldivmod>
 8001f0e:	4602      	mov	r2, r0
 8001f10:	460b      	mov	r3, r1
 8001f12:	4b2f      	ldr	r3, [pc, #188]	; (8001fd0 <UART_SetConfig+0x38c>)
 8001f14:	fba3 1302 	umull	r1, r3, r3, r2
 8001f18:	095b      	lsrs	r3, r3, #5
 8001f1a:	2164      	movs	r1, #100	; 0x64
 8001f1c:	fb01 f303 	mul.w	r3, r1, r3
 8001f20:	1ad3      	subs	r3, r2, r3
 8001f22:	011b      	lsls	r3, r3, #4
 8001f24:	3332      	adds	r3, #50	; 0x32
 8001f26:	4a2a      	ldr	r2, [pc, #168]	; (8001fd0 <UART_SetConfig+0x38c>)
 8001f28:	fba2 2303 	umull	r2, r3, r2, r3
 8001f2c:	095b      	lsrs	r3, r3, #5
 8001f2e:	f003 03f0 	and.w	r3, r3, #240	; 0xf0
 8001f32:	441e      	add	r6, r3
 8001f34:	6f7b      	ldr	r3, [r7, #116]	; 0x74
 8001f36:	4618      	mov	r0, r3
 8001f38:	f04f 0100 	mov.w	r1, #0
 8001f3c:	4602      	mov	r2, r0
 8001f3e:	460b      	mov	r3, r1
 8001f40:	1894      	adds	r4, r2, r2
 8001f42:	603c      	str	r4, [r7, #0]
 8001f44:	415b      	adcs	r3, r3
 8001f46:	607b      	str	r3, [r7, #4]
 8001f48:	e9d7 2300 	ldrd	r2, r3, [r7]
 8001f4c:	1812      	adds	r2, r2, r0
 8001f4e:	eb41 0303 	adc.w	r3, r1, r3
 8001f52:	f04f 0400 	mov.w	r4, #0
 8001f56:	f04f 0500 	mov.w	r5, #0
 8001f5a:	00dd      	lsls	r5, r3, #3
 8001f5c:	ea45 7552 	orr.w	r5, r5, r2, lsr #29
 8001f60:	00d4      	lsls	r4, r2, #3
 8001f62:	4622      	mov	r2, r4
 8001f64:	462b      	mov	r3, r5
 8001f66:	eb12 0a00 	adds.w	sl, r2, r0
 8001f6a:	eb43 0b01 	adc.w	fp, r3, r1
 8001f6e:	6efb      	ldr	r3, [r7, #108]	; 0x6c
 8001f70:	685b      	ldr	r3, [r3, #4]
 8001f72:	4618      	mov	r0, r3
 8001f74:	f04f 0100 	mov.w	r1, #0
 8001f78:	f04f 0200 	mov.w	r2, #0
 8001f7c:	f04f 0300 	mov.w	r3, #0
 8001f80:	008b      	lsls	r3, r1, #2
 8001f82:	ea43 7390 	orr.w	r3, r3, r0, lsr #30
 8001f86:	0082      	lsls	r2, r0, #2
 8001f88:	4650      	mov	r0, sl
 8001f8a:	4659      	mov	r1, fp
 8001f8c:	f7fe f91c 	bl	80001c8 <__aeabi_uldivmod>
 8001f90:	4602      	mov	r2, r0
 8001f92:	460b      	mov	r3, r1
 8001f94:	4b0e      	ldr	r3, [pc, #56]	; (8001fd0 <UART_SetConfig+0x38c>)
 8001f96:	fba3 1302 	umull	r1, r3, r3, r2
 8001f9a:	095b      	lsrs	r3, r3, #5
 8001f9c:	2164      	movs	r1, #100	; 0x64
 8001f9e:	fb01 f303 	mul.w	r3, r1, r3
 8001fa2:	1ad3      	subs	r3, r2, r3
 8001fa4:	011b      	lsls	r3, r3, #4
 8001fa6:	3332      	adds	r3, #50	; 0x32
 8001fa8:	4a09      	ldr	r2, [pc, #36]	; (8001fd0 <UART_SetConfig+0x38c>)
 8001faa:	fba2 2303 	umull	r2, r3, r2, r3
 8001fae:	095b      	lsrs	r3, r3, #5
 8001fb0:	f003 020f 	and.w	r2, r3, #15
 8001fb4:	6efb      	ldr	r3, [r7, #108]	; 0x6c
 8001fb6:	681b      	ldr	r3, [r3, #0]
 8001fb8:	4432      	add	r2, r6
 8001fba:	609a      	str	r2, [r3, #8]
}
 8001fbc:	bf00      	nop
 8001fbe:	377c      	adds	r7, #124	; 0x7c
 8001fc0:	46bd      	mov	sp, r7
 8001fc2:	e8bd 8ff0 	ldmia.w	sp!, {r4, r5, r6, r7, r8, r9, sl, fp, pc}
 8001fc6:	bf00      	nop
 8001fc8:	40011000 	.word	0x40011000
 8001fcc:	40011400 	.word	0x40011400
 8001fd0:	51eb851f 	.word	0x51eb851f

08001fd4 <__libc_init_array>:
 8001fd4:	b570      	push	{r4, r5, r6, lr}
 8001fd6:	4d0d      	ldr	r5, [pc, #52]	; (800200c <__libc_init_array+0x38>)
 8001fd8:	4c0d      	ldr	r4, [pc, #52]	; (8002010 <__libc_init_array+0x3c>)
 8001fda:	1b64      	subs	r4, r4, r5
 8001fdc:	10a4      	asrs	r4, r4, #2
 8001fde:	2600      	movs	r6, #0
 8001fe0:	42a6      	cmp	r6, r4
 8001fe2:	d109      	bne.n	8001ff8 <__libc_init_array+0x24>
 8001fe4:	4d0b      	ldr	r5, [pc, #44]	; (8002014 <__libc_init_array+0x40>)
 8001fe6:	4c0c      	ldr	r4, [pc, #48]	; (8002018 <__libc_init_array+0x44>)
 8001fe8:	f000 f820 	bl	800202c <_init>
 8001fec:	1b64      	subs	r4, r4, r5
 8001fee:	10a4      	asrs	r4, r4, #2
 8001ff0:	2600      	movs	r6, #0
 8001ff2:	42a6      	cmp	r6, r4
 8001ff4:	d105      	bne.n	8002002 <__libc_init_array+0x2e>
 8001ff6:	bd70      	pop	{r4, r5, r6, pc}
 8001ff8:	f855 3b04 	ldr.w	r3, [r5], #4
 8001ffc:	4798      	blx	r3
 8001ffe:	3601      	adds	r6, #1
 8002000:	e7ee      	b.n	8001fe0 <__libc_init_array+0xc>
 8002002:	f855 3b04 	ldr.w	r3, [r5], #4
 8002006:	4798      	blx	r3
 8002008:	3601      	adds	r6, #1
 800200a:	e7f2      	b.n	8001ff2 <__libc_init_array+0x1e>
 800200c:	080020a4 	.word	0x080020a4
 8002010:	080020a4 	.word	0x080020a4
 8002014:	080020a4 	.word	0x080020a4
 8002018:	080020a8 	.word	0x080020a8

0800201c <memset>:
 800201c:	4402      	add	r2, r0
 800201e:	4603      	mov	r3, r0
 8002020:	4293      	cmp	r3, r2
 8002022:	d100      	bne.n	8002026 <memset+0xa>
 8002024:	4770      	bx	lr
 8002026:	f803 1b01 	strb.w	r1, [r3], #1
 800202a:	e7f9      	b.n	8002020 <memset+0x4>

0800202c <_init>:
 800202c:	b5f8      	push	{r3, r4, r5, r6, r7, lr}
 800202e:	bf00      	nop
 8002030:	bcf8      	pop	{r3, r4, r5, r6, r7}
 8002032:	bc08      	pop	{r3}
 8002034:	469e      	mov	lr, r3
 8002036:	4770      	bx	lr

08002038 <_fini>:
 8002038:	b5f8      	push	{r3, r4, r5, r6, r7, lr}
 800203a:	bf00      	nop
 800203c:	bcf8      	pop	{r3, r4, r5, r6, r7}
 800203e:	bc08      	pop	{r3}
 8002040:	469e      	mov	lr, r3
 8002042:	4770      	bx	lr
